# file opened: src/main.asm
  1   0000              ;;;;;;;;;;;;;;;;;;;;;;;;;;;;;;;;;;;;;;;;;;;;;;;;;;;;;;;;;;;;;;;;;;;;;;;
  2   0000              ;;;;;;;;;;;;;;;;;;;;;;;;;;;;;;;;;;;;;;;;;;;;;;;;;;;;;;;;;;;;;;;;;;;;;;;
  3   0000              ;
  4   0000              ;	[mono] CSpect.exe -w4 -zxnext -nextrom -s28 -fps  carddemo.exe
  5   0000              ;
  6   0000              	DEVICE		ZXSPECTRUMNEXT
  7   0000              	CSPECTMAP	"../obj/carddemo.map"
  8   0000
  9   0000              	ORG	0x8000
 10   8000
 11   8000              	; include the cards library code
 12   8000              	;
 13   8000              	include 	"../lib/cards.asm"		; must be on a 0x20 Aligned Address
# file opened: /Users/aidy/Documents/VS_Code_Projects/zxn-public/cards/lib/cards.asm
  1+  8000              	;
  2+  8000              	; NOTE must originate on a 0x100 Byte Border
  3+  8000              	;
  4+  8000
  5+  8000              	DEFINE	ZXN_CARDS_LIB
  6+  8000
  7+  8000              pictureCardData
  8+  8000              	; jack of diamonds
  9+  8000              	;
 10+  8000 FF 80 81 81  	DEFB	0xFF, 0x80, 0x81, 0x81, 0x83, 0x83, 0x87, 0x87
 10+  8004 83 83 87 87
 11+  8008 FF 1F 0F 07  	DEFB	0xFF, 0x1F, 0x0F, 0x07, 0x83, 0x81, 0xC3, 0xC3
 11+  800C 83 81 C3 C3
 12+  8010 FF 6D 6D 0C  	DEFB	0xFF, 0x6D, 0x6D, 0x0C, 0xFF, 0xFF, 0x00, 0x00
 12+  8014 FF FF 00 00
 13+  8018 FF B6 B6 30  	DEFB	0xFF, 0xB6, 0xB6, 0x30, 0xFF, 0xFF, 0x2A, 0x2A
 13+  801C FF FF 2A 2A
 14+  8020 FF FC F8 F0  	DEFB	0xFF, 0xFC, 0xF8, 0xF0, 0xE0, 0xC0, 0x60, 0x80
 14+  8024 E0 C0 60 80
 15+  8028 FF 01 01 03  	DEFB	0xFF, 0x01, 0x01, 0x03, 0x07, 0x0F, 0x1F, 0x17
 15+  802C 07 0F 1F 17
 16+  8030 8F 8F 87 87  	DEFB	0x8F, 0x8F, 0x87, 0x87, 0xC3, 0xE3, 0xF1, 0xF1
 16+  8034 C3 E3 F1 F1
 17+  8038 E3 E7 CB CB  	DEFB	0xE3, 0xE7, 0xCB, 0xCB, 0x8A, 0x8A, 0x12, 0x2A
 17+  803C 8A 8A 12 2A
 18+  8040 F9 08 49 69  	DEFB	0xF9, 0x08, 0x49, 0x69, 0x88, 0x8E, 0x80, 0xDF
 18+  8044 88 8E 80 DF
 19+  8048 EA 2A 2A AA  	DEFB	0xEA, 0x2A, 0x2A, 0xAA, 0x2A, 0x2A, 0x2A, 0x29
 19+  804C 2A 2A 2A 29
 20+  8050 88 8C 87 83  	DEFB	0x88, 0x8C, 0x87, 0x83, 0x81, 0x98, 0x54, 0x24
 20+  8054 81 98 54 24
 21+  8058 17 17 17 FF  	DEFB	0x17, 0x17, 0x17, 0xFF, 0xFF, 0xFF, 0x7F, 0x7F
 21+  805C FF FF 7F 7F
 22+  8060 E8 E8 EF EF  	DEFB	0xE8, 0xE8, 0xEF, 0xEF, 0xEF, 0xEF, 0xEF, 0xEE
 22+  8064 EF EF EF EE
 23+  8068 12 E2 EE E9  	DEFB	0x12, 0xE2, 0xEE, 0xE9, 0xCA, 0x98, 0x24, 0x67
 23+  806C CA 98 24 67
 24+  8070 C0 A4 A0 D0  	DEFB	0xC0, 0xA4, 0xA0, 0xD0, 0x30, 0x4F, 0x11, 0x83
 24+  8074 30 4F 11 83
 25+  8078 24 12 09 16  	DEFB	0x24, 0x12, 0x09, 0x16, 0x75, 0xF5, 0x06, 0xFE
 25+  807C 75 F5 06 FE
 26+  8080 B8 5E 01 78  	DEFB	0xB8, 0x5E, 0x01, 0x78, 0x3F, 0x9F, 0xCE, 0xA6
 26+  8084 3F 9F CE A6
 27+  8088 3F 37 E3 25  	DEFB	0x3F, 0x37, 0xE3, 0x25, 0x25, 0x25, 0x25, 0x3D
 27+  808C 25 25 25 3D
 28+  8090 EE EF EF EF  	DEFB	0xEE, 0xEF, 0xEF, 0xEF, 0xEF, 0xEF, 0xEF, 0xEF
 28+  8094 EF EF EF EF
 29+  8098 A9 33 B7 EF  	DEFB	0xA9, 0x33, 0xB7, 0xEF, 0xE7, 0xFF, 0xE3, 0xEC
 29+  809C E7 FF E3 EC
 30+  80A0 FD FA F7 EF  	DEFB	0xFD, 0xFA, 0xF7, 0xEF, 0xDF, 0xBF, 0x7F, 0xBF
 30+  80A4 DF BF 7F BF
 31+  80A8 0E 9E 60 BF  	DEFB	0x0E, 0x9E, 0x60, 0xBF, 0xD1, 0xEA, 0xF7, 0xFA
 31+  80AC D1 EA F7 FA
 32+  80B0 92 AA ED EB  	DEFB	0x92, 0xAA, 0xED, 0xEB, 0xEB, 0x0F, 0xFD, 0x17
 32+  80B4 EB 0F FD 17
 33+  80B8 F1 F1 F7 F7  	DEFB	0xF1, 0xF1, 0xF7, 0xF7, 0xF7, 0xF7, 0xF7, 0xF7
 33+  80BC F7 F7 F7 F7
 34+  80C0              	; queen of diamonds
 35+  80C0              	;
 36+  80C0 FF 80 80 80  	DEFB	0xFF, 0x80, 0x80, 0x80, 0x81, 0x81, 0x83, 0x83
 36+  80C4 81 81 83 83
 37+  80C8 FF 00 80 80  	DEFB	0xFF, 0x00, 0x80, 0x80, 0xC0, 0xC0, 0xE0, 0xE0
 37+  80CC C0 C0 E0 E0
 38+  80D0 FF 01 03 07  	DEFB	0xFF, 0x01, 0x03, 0x07, 0x07, 0x0F, 0x0F, 0x1F
 38+  80D4 07 0F 0F 1F
 39+  80D8 FF E7 DB B1  	DEFB	0xFF, 0xE7, 0xDB, 0xB1, 0xA0, 0xC0, 0x80, 0xF0
 39+  80DC A0 C0 80 F0
 40+  80E0 FF F1 F9 FC  	DEFB	0xFF, 0xF1, 0xF9, 0xFC, 0xFE, 0x7F, 0x3F, 0xCF
 40+  80E4 FE 7F 3F CF
 41+  80E8 FF 01 F1 11  	DEFB	0xFF, 0x01, 0xF1, 0x11, 0x11, 0x1D, 0x83, 0xC5
 41+  80EC 11 1D 83 C5
 42+  80F0 87 87 83 83  	DEFB	0x87, 0x87, 0x83, 0x83, 0x81, 0x81, 0x80, 0x82
 42+  80F4 81 81 80 82
 43+  80F8 F0 F0 E0 E0  	DEFB	0xF0, 0xF0, 0xE0, 0xE0, 0xC0, 0xC0, 0x80, 0x80
 43+  80FC C0 C0 80 80
 44+  8100 1F 1F 1F 1F  	DEFB	0x1F, 0x1F, 0x1F, 0x1F, 0x3F, 0x3F, 0x3F, 0x3F
 44+  8104 3F 3F 3F 3F
 45+  8108 89 E9 88 88  	DEFB	0x89, 0xE9, 0x88, 0x88, 0xCE, 0xC0, 0xDF, 0xC0
 45+  810C CE C0 DF C0
 46+  8110 07 C3 03 03  	DEFB	0x07, 0xC3, 0x03, 0x03, 0x03, 0x03, 0x03, 0x04
 46+  8114 03 03 03 04
 47+  8118 E9 F1 F9 FD  	DEFB	0xE9, 0xF1, 0xF9, 0xFD, 0xFF, 0xFF, 0xFF, 0xFF
 47+  811C FF FF FF FF
 48+  8120 87 87 9F BF  	DEFB	0x87, 0x87, 0x9F, 0xBF, 0x9F, 0x87, 0xF7, 0x8A
 48+  8124 9F 87 F7 8A
 49+  8128 00 00 C0 E0  	DEFB	0x00, 0x00, 0xC0, 0xE0, 0xC0, 0x03, 0x1F, 0x7F
 49+  812C C0 03 1F 7F
 50+  8130 3F 3F 3D 38  	DEFB	0x3F, 0x3F, 0x3D, 0x38, 0xFD, 0xFF, 0xF8, 0xFE
 50+  8134 FD FF F8 FE
 51+  8138 C0 E0 F0 CF  	DEFB	0xC0, 0xE0, 0xF0, 0xCF, 0x8C, 0xEB, 0xE3, 0x1C
 51+  813C 8C EB E3 1C
 52+  8140 0F 1F 6F C6  	DEFB	0x0F, 0x1F, 0x6F, 0xC6, 0xD8, 0x38, 0x3B, 0xE3
 52+  8144 D8 38 3B E3
 53+  8148 7F FF E1 F3  	DEFB	0x7F, 0xFF, 0xE1, 0xF3, 0xCF, 0x87, 0x87, 0xDF
 53+  814C CF 87 87 DF
 54+  8150 84 83 8D B2  	DEFB	0x84, 0x83, 0x8D, 0xB2, 0xC2, 0x81, 0x80, 0x80
 54+  8154 C2 81 80 80
 55+  8158 E7 97 9B 67  	DEFB	0xE7, 0x97, 0x9B, 0x67, 0x64, 0x98, 0x90, 0x60
 55+  815C 64 98 90 60
 56+  8160 FC F9 F3 E6  	DEFB	0xFC, 0xF9, 0xF3, 0xE6, 0xCC, 0x00, 0xFF, 0xFF
 56+  8164 CC 00 FF FF
 57+  8168 DF 9F 3F 7F  	DEFB	0xDF, 0x9F, 0x3F, 0x7F, 0xFF, 0x00, 0xFF, 0xFF
 57+  816C FF 00 FF FF
 58+  8170 E3 FF E3 C0  	DEFB	0xE3, 0xFF, 0xE3, 0xC0, 0xC0, 0x80, 0x80, 0x80
 58+  8174 C0 80 80 80
 59+  8178 FF FF FF 7F  	DEFB	0xFF, 0xFF, 0xFF, 0x7F, 0x0F, 0x01, 0x01, 0x01
 59+  817C 0F 01 01 01
 60+  8180              	; king of diamonds
 61+  8180              	;
 62+  8180 FF 80 82 82  	DEFB	0xFF, 0x80, 0x82, 0x82, 0x87, 0x87, 0x8F, 0x8F
 62+  8184 87 87 8F 8F
 63+  8188 FF 18 0C 07  	DEFB	0xFF, 0x18, 0x0C, 0x07, 0x03, 0x01, 0x80, 0x80
 63+  818C 03 01 80 80
 64+  8190 FF 20 51 FF  	DEFB	0xFF, 0x20, 0x51, 0xFF, 0xFF, 0xFF, 0x8F, 0xE0
 64+  8194 FF FF 8F E0
 65+  8198 FF 00 04 8A  	DEFB	0xFF, 0x00, 0x04, 0x8A, 0xD1, 0xE0, 0xFF, 0x7F
 65+  819C D1 E0 FF 7F
 66+  81A0 FF 08 1A 3B  	DEFB	0xFF, 0x08, 0x1A, 0x3B, 0x7B, 0xF3, 0xF7, 0xF7
 66+  81A4 7B F3 F7 F7
 67+  81A8 FF 03 07 0D  	DEFB	0xFF, 0x03, 0x07, 0x0D, 0x99, 0xF3, 0xE7, 0xEF
 67+  81AC 99 F3 E7 EF
 68+  81B0 9F 9F 8F 8F  	DEFB	0x9F, 0x9F, 0x8F, 0x8F, 0x87, 0x87, 0x82, 0xF2
 68+  81B4 87 87 82 F2
 69+  81B8 C0 C0 80 81  	DEFB	0xC0, 0xC0, 0x80, 0x81, 0x02, 0x03, 0x00, 0x1C
 69+  81BC 02 03 00 1C
 70+  81C0 81 B9 A1 03  	DEFB	0x81, 0xB9, 0xA1, 0x03, 0x13, 0x89, 0xF1, 0x87
 70+  81C4 13 89 F1 87
 71+  81C8 5F 57 55 15  	DEFB	0x5F, 0x57, 0x55, 0x15, 0xA5, 0xA9, 0xAA, 0xAA
 71+  81CC A5 A9 AA AA
 72+  81D0 F7 F7 57 57  	DEFB	0xF7, 0xF7, 0x57, 0x57, 0x53, 0x5B, 0x4B, 0x9A
 72+  81D4 53 5B 4B 9A
 73+  81D8 EF EF EF EF  	DEFB	0xEF, 0xEF, 0xEF, 0xEF, 0xEF, 0xAF, 0x2F, 0x2F
 73+  81DC EF AF 2F 2F
 74+  81E0 90 9C 94 95  	DEFB	0x90, 0x9C, 0x94, 0x95, 0x96, 0x99, 0xE0, 0x89
 74+  81E4 96 99 E0 89
 75+  81E8 17 10 5E DE  	DEFB	0x17, 0x10, 0x5E, 0xDE, 0x5E, 0x5E, 0x4F, 0xCF
 75+  81EC 5E 5E 4F CF
 76+  81F0 E4 04 FF FF  	DEFB	0xE4, 0x04, 0xFF, 0xFF, 0xFE, 0x7C, 0x79, 0x73
 76+  81F4 FE 7C 79 73
 77+  81F8 AA 2A FF 00  	DEFB	0xAA, 0x2A, 0xFF, 0x00, 0x7F, 0xFF, 0x80, 0x3E
 77+  81FC 7F FF 80 3E
 78+  8200 B0 BF F9 01  	DEFB	0xB0, 0xBF, 0xF9, 0x01, 0xFD, 0xFD, 0xF9, 0xFB
 78+  8204 FD FD F9 FB
 79+  8208 2F 2F FF FF  	DEFB	0x2F, 0x2F, 0xFF, 0xFF, 0xFF, 0xFF, 0xFF, 0xFF
 79+  820C FF FF FF FF
 80+  8210 C6 98 E0 81  	DEFB	0xC6, 0x98, 0xE0, 0x81, 0x87, 0x9F, 0xFF, 0xFF
 80+  8214 87 9F FF FF
 81+  8218 6F EF E7 F7  	DEFB	0x6F, 0xEF, 0xE7, 0xF7, 0xF7, 0xF7, 0xF7, 0xF7
 81+  821C F7 F7 F7 F7
 82+  8220 66 0C B9 B3  	DEFB	0x66, 0x0C, 0xB9, 0xB3, 0x80, 0x80, 0x84, 0x8E
 82+  8224 80 80 84 8E
 83+  8228 7E FE FE FC  	DEFB	0x7E, 0xFE, 0xFE, 0xFC, 0x01, 0x01, 0x21, 0x71
 83+  822C 01 01 21 71
 84+  8230 F3 F7 F7 F7  	DEFB	0xF3, 0xF7, 0xF7, 0xF7, 0xE7, 0xEF, 0xEF, 0xEF
 84+  8234 E7 EF EF EF
 85+  8238 FF FF FF FF  	DEFB	0xFF, 0xFF, 0xFF, 0xFF, 0xFF, 0xFF, 0xFF, 0xFF
 85+  823C FF FF FF FF
 86+  8240              	; jack of clubs
 87+  8240              	;
 88+  8240 FF 80 83 87  	DEFB	0xFF, 0x80, 0x83, 0x87, 0x87, 0x9B, 0xBF, 0xBF
 88+  8244 87 9B BF BF
 89+  8248 FF 03 81 C0  	DEFB	0xFF, 0x03, 0x81, 0xC0, 0xC0, 0xB0, 0xF8, 0xF8
 89+  824C C0 B0 F8 F8
 90+  8250 FF FF FF FF  	DEFB	0xFF, 0xFF, 0xFF, 0xFF, 0x7F, 0x3F, 0x2A, 0x2A
 90+  8254 7F 3F 2A 2A
 91+  8258 FF FF FF FF  	DEFB	0xFF, 0xFF, 0xFF, 0xFF, 0xFF, 0xFF, 0xA0, 0xBC
 91+  825C FF FF A0 BC
 92+  8260 FF FF FE FD  	DEFB	0xFF, 0xFF, 0xFE, 0xFD, 0xF8, 0xF4, 0x13, 0xF0
 92+  8264 F8 F4 13 F0
 93+  8268 FF 01 03 05  	DEFB	0xFF, 0x01, 0x03, 0x05, 0xCD, 0x2D, 0xCD, 0x0D
 93+  826C CD 2D CD 0D
 94+  8270 BF 99 81 83  	DEFB	0xBF, 0x99, 0x81, 0x83, 0xC7, 0xA0, 0xB0, 0xB0
 94+  8274 C7 A0 B0 B0
 95+  8278 F8 30 00 80  	DEFB	0xF8, 0x30, 0x00, 0x80, 0xC0, 0x00, 0x01, 0x07
 95+  827C C0 00 01 07
 96+  8280 2A 2A 2A 2A  	DEFB	0x2A, 0x2A, 0x2A, 0x2A, 0x3A, 0x6E, 0xAA, 0xAF
 96+  8284 3A 6E AA AF
 97+  8288 A0 BC A0 A7  	DEFB	0xA0, 0xBC, 0xA0, 0xA7, 0xA0, 0xAF, 0xA0, 0xA1
 97+  828C A0 AF A0 A1
 98+  8290 90 B0 90 90  	DEFB	0x90, 0xB0, 0x90, 0x90, 0x10, 0xD0, 0x2F, 0x49
 98+  8294 10 D0 2F 49
 99+  8298 0D 0D 0D 0D  	DEFB	0x0D, 0x0D, 0x0D, 0x0D, 0x0D, 0x1F, 0xF1, 0x13
 99+  829C 0D 1F F1 13
100+  82A0 B3 BC B5 B2  	DEFB	0xB3, 0xBC, 0xB5, 0xB2, 0xB1, 0xB9, 0xB9, 0xB8
100+  82A4 B1 B9 B9 B8
101+  82A8 FF 07 B0 06  	DEFB	0xFF, 0x07, 0xB0, 0x06, 0xF9, 0xFE, 0xFD, 0xF8
101+  82AC F9 FE FD F8
102+  82B0 AE AF 6F 2F  	DEFB	0xAE, 0xAF, 0x6F, 0x2F, 0x9F, 0x4F, 0xA7, 0xC3
102+  82B4 9F 4F A7 C3
103+  82B8 A0 D9 67 B7  	DEFB	0xA0, 0xD9, 0x67, 0xB7, 0xDA, 0xED, 0xE7, 0xEA
103+  82BC DA ED E7 EA
104+  82C0 E9 DC B4 6C  	DEFB	0xE9, 0xDC, 0xB4, 0x6C, 0xDC, 0xBC, 0x7C, 0xFC
104+  82C4 DC BC 7C FC
105+  82C8 95 95 F5 FD  	DEFB	0x95, 0x95, 0xF5, 0xFD, 0xEF, 0xED, 0xED, 0xED
105+  82CC EF ED ED ED
106+  82D0 B4 B4 B4 B6  	DEFB	0xB4, 0xB4, 0xB4, 0xB6, 0xB6, 0xB6, 0xB6, 0xB6
106+  82D4 B6 B6 B6 B6
107+  82D8 F1 E3 C7 4F  	DEFB	0xF1, 0xE3, 0xC7, 0x4F, 0x5F, 0x7F, 0x7F, 0x7F
107+  82DC 5F 7F 7F 7F
108+  82E0 EB E1 F4 F8  	DEFB	0xEB, 0xE1, 0xF4, 0xF8, 0xFA, 0xFC, 0xFC, 0xFE
108+  82E4 FA FC FC FE
109+  82E8 ED ED ED ED  	DEFB	0xED, 0xED, 0xED, 0xED, 0x6D, 0x6D, 0xBD, 0x3D
109+  82EC 6D 6D BD 3D
110+  82F0 FC FC FC FC  	DEFB	0xFC, 0xFC, 0xFC, 0xFC, 0xFE, 0xFE, 0xFE, 0xFE
110+  82F4 FE FE FE FE
111+  82F8 6D 6D 6D 6D  	DEFB	0x6D, 0x6D, 0x6D, 0x6D, 0x6D, 0x6D, 0x6D, 0x6D
111+  82FC 6D 6D 6D 6D
112+  8300              	; queen of clubs
113+  8300              	;
114+  8300 FF 80 83 87  	DEFB	0xFF, 0x80, 0x83, 0x87, 0x87, 0x9B, 0xBF, 0xBF
114+  8304 87 9B BF BF
115+  8308 FF 00 80 C0  	DEFB	0xFF, 0x00, 0x80, 0xC0, 0xC0, 0xB0, 0xF8, 0xF8
115+  830C C0 B0 F8 F8
116+  8310 FF 02 05 07  	DEFB	0xFF, 0x02, 0x05, 0x07, 0x0F, 0x0C, 0x17, 0x3C
116+  8314 0F 0C 17 3C
117+  8318 FF 92 0A 05  	DEFB	0xFF, 0x92, 0x0A, 0x05, 0xF8, 0x80, 0xB0, 0x80
117+  831C F8 80 B0 80
118+  8320 FF FF FF 7F  	DEFB	0xFF, 0xFF, 0xFF, 0x7F, 0x7F, 0x7F, 0x7F, 0x7F
118+  8324 7F 7F 7F 7F
119+  8328 FF 01 01 81  	DEFB	0xFF, 0x01, 0x01, 0x81, 0x81, 0xC1, 0xC1, 0xE1
119+  832C 81 C1 C1 E1
120+  8330 BF 99 81 83  	DEFB	0xBF, 0x99, 0x81, 0x83, 0x87, 0x8E, 0x91, 0xB5
120+  8334 87 8E 91 B5
121+  8338 F8 30 01 83  	DEFB	0xF8, 0x30, 0x01, 0x83, 0xC7, 0x0F, 0x1F, 0x9F
121+  833C C7 0F 1F 9F
122+  8340 7C FC FC FA  	DEFB	0x7C, 0xFC, 0xFC, 0xFA, 0xF7, 0xEF, 0xDF, 0xE0
122+  8344 F7 EF DF E0
123+  8348 C0 00 F1 03  	DEFB	0xC0, 0x00, 0xF1, 0x03, 0x47, 0x8F, 0xFF, 0x00
123+  834C 47 8F FF 00
124+  8350 7F BF DF EF  	DEFB	0x7F, 0xBF, 0xDF, 0xEF, 0xF7, 0xFB, 0xFD, 0x00
124+  8354 F7 FB FD 00
125+  8358 E1 F1 F9 FD  	DEFB	0xE1, 0xF1, 0xF9, 0xFD, 0xFF, 0xFF, 0xFF, 0xFF
125+  835C FF FF FF FF
126+  8360 C4 DF C4 B5  	DEFB	0xC4, 0xDF, 0xC4, 0xB5, 0x91, 0xFF, 0xA0, 0xA0
126+  8364 91 FF A0 A0
127+  8368 5F 5F 6F 97  	DEFB	0x5F, 0x5F, 0x6F, 0x97, 0x3B, 0xFD, 0xFE, 0xFF
127+  836C 3B FD FE FF
128+  8370 E0 F7 F6 FA  	DEFB	0xE0, 0xF7, 0xF6, 0xFA, 0xFA, 0xF5, 0xF5, 0xEB
128+  8374 FA F5 F5 EB
129+  8378 00 FF EF EF  	DEFB	0x00, 0xFF, 0xEF, 0xEF, 0xEF, 0xEE, 0xDD, 0xDB
129+  837C EF EE DD DB
130+  8380 00 FF BF BF  	DEFB	0x00, 0xFF, 0xBF, 0xBF, 0x60, 0xCF, 0xBF, 0x7F
130+  8384 60 CF BF 7F
131+  8388 5F EF F7 FF  	DEFB	0x5F, 0xEF, 0xF7, 0xFF, 0x03, 0xF7, 0x8F, 0xBF
131+  838C 03 F7 8F BF
132+  8390 FF 81 83 87  	DEFB	0xFF, 0x81, 0x83, 0x87, 0x8F, 0x9F, 0xBF, 0xFF
132+  8394 8F 9F BF FF
133+  8398 FF FF FF FF  	DEFB	0xFF, 0xFF, 0xFF, 0xFF, 0xFF, 0xFE, 0xFD, 0xF8
133+  839C FF FE FD F8
134+  83A0 DB DB FF FF  	DEFB	0xDB, 0xDB, 0xFF, 0xFF, 0x44, 0x44, 0x44, 0x44
134+  83A4 44 44 44 44
135+  83A8 B6 B5 FF FF  	DEFB	0xB6, 0xB5, 0xFF, 0xFF, 0x22, 0x22, 0x22, 0x23
135+  83AC 22 22 22 23
136+  83B0 CE 24 10 48  	DEFB	0xCE, 0x24, 0x10, 0x48, 0xE5, 0x43, 0x03, 0xFF
136+  83B4 E5 43 03 FF
137+  83B8 3F FF FF FF  	DEFB	0x3F, 0xFF, 0xFF, 0xFF, 0xFF, 0xFF, 0xFF, 0xFF
137+  83BC FF FF FF FF
138+  83C0              	; king of clubs
139+  83C0              	;
140+  83C0 FF 80 83 87  	DEFB	0xFF, 0x80, 0x83, 0x87, 0x87, 0x9B, 0xBF, 0xBF
140+  83C4 87 9B BF BF
141+  83C8 FF 03 81 C0  	DEFB	0xFF, 0x03, 0x81, 0xC0, 0xC0, 0xB0, 0xF8, 0xF8
141+  83CC C0 B0 F8 F8
142+  83D0 FF 04 CA FF  	DEFB	0xFF, 0x04, 0xCA, 0xFF, 0x7F, 0x3F, 0x20, 0x3E
142+  83D4 7F 3F 20 3E
143+  83D8 FF 10 7C FF  	DEFB	0xFF, 0x10, 0x7C, 0xFF, 0xFF, 0xFF, 0x01, 0x71
143+  83DC FF FF 01 71
144+  83E0 FF 43 AE FC  	DEFB	0xFF, 0x43, 0xAE, 0xFC, 0xF8, 0xF0, 0x50, 0x50
144+  83E4 F8 F0 50 50
145+  83E8 FF 01 01 01  	DEFB	0xFF, 0x01, 0x01, 0x01, 0x11, 0x29, 0x2D, 0x2D
145+  83EC 11 29 2D 2D
146+  83F0 BF 99 81 83  	DEFB	0xBF, 0x99, 0x81, 0x83, 0x87, 0x80, 0x80, 0x80
146+  83F4 87 80 80 80
147+  83F8 F8 30 00 80  	DEFB	0xF8, 0x30, 0x00, 0x80, 0xC0, 0x00, 0x00, 0x00
147+  83FC C0 00 00 00
148+  8400 20 3C 24 24  	DEFB	0x20, 0x3C, 0x24, 0x24, 0x26, 0x27, 0x38, 0x27
148+  8404 26 27 38 27
149+  8408 01 61 01 01  	DEFB	0x01, 0x61, 0x01, 0x01, 0x21, 0x12, 0x62, 0x86
149+  840C 21 12 62 86
150+  8410 50 50 50 50  	DEFB	0x50, 0x50, 0x50, 0x50, 0x50, 0x50, 0xA8, 0xD4
150+  8414 50 50 A8 D4
151+  8418 2D 2D 2D 2D  	DEFB	0x2D, 0x2D, 0x2D, 0x2D, 0x2D, 0x2D, 0x2D, 0x2D
151+  841C 2D 2D 2D 2D
152+  8420 80 80 80 80  	DEFB	0x80, 0x80, 0x80, 0x80, 0x81, 0x83, 0x87, 0x9B
152+  8424 81 83 87 9B
153+  8428 00 03 1E 67  	DEFB	0x00, 0x03, 0x1E, 0x67, 0xE7, 0xE7, 0xE7, 0x1C
153+  842C E7 E7 E7 1C
154+  8430 12 F8 FF 7B  	DEFB	0x12, 0xF8, 0xFF, 0x7B, 0xBA, 0xDD, 0xED, 0xED
154+  8434 BA DD ED ED
155+  8438 0E 7F FF FF  	DEFB	0x0E, 0x7F, 0xFF, 0xFF, 0x7E, 0x18, 0x81, 0x66
155+  843C 7E 18 81 66
156+  8440 54 A8 E8 94  	DEFB	0x54, 0xA8, 0xE8, 0x94, 0x2E, 0x5D, 0xDD, 0xFA
156+  8444 2E 5D DD FA
157+  8448 2D 2D 2D 2D  	DEFB	0x2D, 0x2D, 0x2D, 0x2D, 0x2D, 0x2D, 0xAD, 0xFF
157+  844C 2D 2D AD FF
158+  8450 A3 C3 93 93  	DEFB	0xA3, 0xC3, 0x93, 0x93, 0x92, 0xBB, 0x93, 0x82
158+  8454 92 BB 93 82
159+  8458 7E DB DB DB  	DEFB	0x7E, 0xDB, 0xDB, 0xDB, 0x18, 0xFF, 0xFF, 0x00
159+  845C 18 FF FF 00
160+  8460 ED F6 F6 F7  	DEFB	0xED, 0xF6, 0xF6, 0xF7, 0x7A, 0xFA, 0xFD, 0x73
160+  8464 7A FA FD 73
161+  8468 18 81 E7 9A  	DEFB	0x18, 0x81, 0xE7, 0x9A, 0x42, 0x42, 0xBA, 0xCA
161+  846C 42 42 BA CA
162+  8470 BA 77 77 F7  	DEFB	0xBA, 0x77, 0x77, 0xF7, 0xEF, 0xEF, 0xEF, 0xFF
162+  8474 EF EF EF FF
163+  8478 2D FF 91 91  	DEFB	0x2D, 0xFF, 0x91, 0x91, 0x91, 0xF1, 0xF1, 0xF1
163+  847C 91 F1 F1 F1
164+  8480              	; jack of hearts
165+  8480              	;
166+  8480 FF 80 8C 9E  	DEFB	0xFF, 0x80, 0x8C, 0x9E, 0xBF, 0xBF, 0xBF, 0xBF
166+  8484 BF BF BF BF
167+  8488 FF 03 61 F0  	DEFB	0xFF, 0x03, 0x61, 0xF0, 0xF8, 0xF8, 0xF8, 0xF8
167+  848C F8 F8 F8 F8
168+  8490 FF BA BA 82  	DEFB	0xFF, 0xBA, 0xBA, 0x82, 0x7F, 0x40, 0x7C, 0x40
168+  8494 7F 40 7C 40
169+  8498 FF ED EB 0B  	DEFB	0xFF, 0xED, 0xEB, 0x0B, 0xF8, 0x57, 0x55, 0x55
169+  849C F8 57 55 55
170+  84A0 FF B8 B2 67  	DEFB	0xFF, 0xB8, 0xB2, 0x67, 0x4F, 0x8B, 0x13, 0x1C
170+  84A4 4F 8B 13 1C
171+  84A8 FF 01 05 0D  	DEFB	0xFF, 0x01, 0x05, 0x0D, 0x9D, 0xDD, 0xFD, 0xFD
171+  84AC 9D DD FD FD
172+  84B0 9F 8F 87 83  	DEFB	0x9F, 0x8F, 0x87, 0x83, 0x81, 0x81, 0x82, 0xBE
172+  84B4 81 81 82 BE
173+  84B8 F0 E0 C1 81  	DEFB	0xF0, 0xE0, 0xC1, 0x81, 0x04, 0xDC, 0xE0, 0x01
173+  84BC 04 DC E0 01
174+  84C0 58 80 00 DC  	DEFB	0x58, 0x80, 0x00, 0xDC, 0x20, 0x78, 0x43, 0xBF
174+  84C4 20 78 43 BF
175+  84C8 55 55 55 55  	DEFB	0x55, 0x55, 0x55, 0x55, 0x3D, 0xFD, 0xFF, 0xFF
175+  84CC 3D FD FF FF
176+  84D0 1F 13 8B EB  	DEFB	0x1F, 0x13, 0x8B, 0xEB, 0x97, 0x52, 0x10, 0xE0
176+  84D4 97 52 10 E0
177+  84D8 FD FD DD 9D  	DEFB	0xFD, 0xFD, 0xDD, 0x9D, 0x1D, 0x1D, 0x1D, 0x1D
177+  84DC 1D 1D 1D 1D
178+  84E0 A1 FC 84 84  	DEFB	0xA1, 0xFC, 0x84, 0x84, 0x84, 0xFE, 0x9D, 0xBD
178+  84E4 84 FE 9D BD
179+  84E8 0F B3 E1 F0  	DEFB	0x0F, 0xB3, 0xE1, 0xF0, 0xE8, 0xEC, 0xEA, 0xED
179+  84EC E8 EC EA ED
180+  84F0 C0 E0 F0 FB  	DEFB	0xC0, 0xE0, 0xF0, 0xFB, 0x7D, 0x3D, 0x1E, 0x1E
180+  84F4 7D 3D 1E 1E
181+  84F8 00 00 00 FE  	DEFB	0x00, 0x00, 0x00, 0xFE, 0xFD, 0xFB, 0xF7, 0xEF
181+  84FC FD FB F7 EF
182+  8500 18 3F 7A F4  	DEFB	0x18, 0x3F, 0x7A, 0xF4, 0xE8, 0xD8, 0xBC, 0x7E
182+  8504 E8 D8 BC 7E
183+  8508 1D 1D DD 3D  	DEFB	0x1D, 0x1D, 0xDD, 0x3D, 0x0D, 0x53, 0xF9, 0x71
183+  850C 0D 53 F9 71
184+  8510 FB F7 EF 9F  	DEFB	0xFB, 0xF7, 0xEF, 0x9F, 0xFF, 0xFE, 0xFD, 0xF3
184+  8514 FF FE FD F3
185+  8518 EE DE DF B9  	DEFB	0xEE, 0xDE, 0xDF, 0xB9, 0x77, 0xEF, 0xEF, 0xDF
185+  851C 77 EF EF DF
186+  8520 8F 8F 6F 8F  	DEFB	0x8F, 0x8F, 0x6F, 0x8F, 0xBF, 0xBF, 0x99, 0x99
186+  8524 BF BF 99 99
187+  8528 5E 3D 7B F5  	DEFB	0x5E, 0x3D, 0x7B, 0xF5, 0xFD, 0xFD, 0x99, 0x99
187+  852C FD FD 99 99
188+  8530 BF DF EF F7  	DEFB	0xBF, 0xDF, 0xEF, 0xF7, 0xF7, 0xFB, 0xFB, 0xFB
188+  8534 F7 FB FB FB
189+  8538 21 85 CF E7  	DEFB	0x21, 0x85, 0xCF, 0xE7, 0xF3, 0xF9, 0xFD, 0xFF
189+  853C F3 F9 FD FF
190+  8540              	; queen of hearts
191+  8540              	;
192+  8540 FF 80 8C 9E  	DEFB	0xFF, 0x80, 0x8C, 0x9E, 0xBF, 0xBF, 0xBF, 0xBF
192+  8544 BF BF BF BF
193+  8548 FF 00 60 F0  	DEFB	0xFF, 0x00, 0x60, 0xF0, 0xF8, 0xF8, 0xF8, 0xF8
193+  854C F8 F8 F8 F8
194+  8550 FF 0A 15 3E  	DEFB	0xFF, 0x0A, 0x15, 0x3E, 0x30, 0x5F, 0x51, 0xBD
194+  8554 30 5F 51 BD
195+  8558 FF D6 3A 0B  	DEFB	0xFF, 0xD6, 0x3A, 0x0B, 0x03, 0x7B, 0x03, 0x33
195+  855C 03 7B 03 33
196+  8560 FF C0 F8 78  	DEFB	0xFF, 0xC0, 0xF8, 0x78, 0xB8, 0xBF, 0xDE, 0xDC
196+  8564 B8 BF DE DC
197+  8568 FF 01 01 01  	DEFB	0xFF, 0x01, 0x01, 0x01, 0x01, 0x01, 0x01, 0x01
197+  856C 01 01 01 01
198+  8570 9F 8F 87 83  	DEFB	0x9F, 0x8F, 0x87, 0x83, 0x81, 0x80, 0x80, 0x80
198+  8574 81 80 80 80
199+  8578 F0 E1 C1 81  	DEFB	0xF0, 0xE1, 0xC1, 0x81, 0x01, 0x01, 0x01, 0x07
199+  857C 01 01 01 07
200+  8580 B1 51 70 F0  	DEFB	0xB1, 0x51, 0x70, 0xF0, 0xF3, 0xF8, 0xF8, 0xFC
200+  8584 F3 F8 F8 FC
201+  8588 01 C1 01 01  	DEFB	0x01, 0xC1, 0x01, 0x01, 0xE3, 0x07, 0x8F, 0x3F
201+  858C E3 07 8F 3F
202+  8590 E8 F0 F8 F8  	DEFB	0xE8, 0xF0, 0xF8, 0xF8, 0x7C, 0xBC, 0xDC, 0xEC
202+  8594 7C BC DC EC
203+  8598 19 5B 3D E7  	DEFB	0x19, 0x5B, 0x3D, 0xE7, 0xE7, 0x3D, 0x5B, 0x19
203+  859C E7 3D 5B 19
204+  85A0 80 80 87 9F  	DEFB	0x80, 0x80, 0x87, 0x9F, 0xFF, 0xFE, 0xFC, 0xFC
204+  85A4 FF FE FC FC
205+  85A8 19 F1 FA 84  	DEFB	0x19, 0xF1, 0xFA, 0x84, 0x07, 0xE7, 0xE7, 0x67
205+  85AC 07 E7 E7 67
206+  85B0 FF 7F 3F 4F  	DEFB	0xFF, 0x7F, 0x3F, 0x4F, 0x95, 0xE5, 0xF9, 0xFE
206+  85B4 95 E5 F9 FE
207+  85B8 FF FF FF FE  	DEFB	0xFF, 0xFF, 0xFF, 0xFE, 0x52, 0x53, 0x4F, 0x7F
207+  85BC 52 53 4F 7F
208+  85C0 FA E9 A6 9C  	DEFB	0xFA, 0xE9, 0xA6, 0x9C, 0x78, 0xFA, 0xFF, 0xFB
208+  85C4 78 FA FF FB
209+  85C8 05 D5 4F 25  	DEFB	0x05, 0xD5, 0x4F, 0x25, 0x2F, 0x39, 0x29, 0x29
209+  85CC 2F 39 29 29
210+  85D0 F9 FB FF FA  	DEFB	0xF9, 0xFB, 0xFF, 0xFA, 0xF8, 0xF9, 0xFB, 0xFF
210+  85D4 F8 F9 FB FF
211+  85D8 3F A3 FC BF  	DEFB	0x3F, 0xA3, 0xFC, 0xBF, 0x3F, 0x3F, 0xBF, 0xFF
211+  85DC 3F 3F BF FF
212+  85E0 F2 FE F2 7E  	DEFB	0xF2, 0xFE, 0xF2, 0x7E, 0xB2, 0xBE, 0xD2, 0xDE
212+  85E4 B2 BE D2 DE
213+  85E8 4F 7F 4F 7E  	DEFB	0x4F, 0x7F, 0x4F, 0x7E, 0x4D, 0x7D, 0x4B, 0x7B
213+  85EC 4D 7D 4B 7B
214+  85F0 F9 C8 3A FF  	DEFB	0xF9, 0xC8, 0x3A, 0xFF, 0xFB, 0xF9, 0xF8, 0xFA
214+  85F4 FB F9 F8 FA
215+  85F8 29 2F A1 FF  	DEFB	0x29, 0x2F, 0xA1, 0xFF, 0xBF, 0x3F, 0x3F, 0xBF
215+  85FC BF 3F 3F BF
216+  8600              	; king of hearts
217+  8600              	;
218+  8600 FF 80 8C 9E  	DEFB	0xFF, 0x80, 0x8C, 0x9E, 0xBF, 0xBF, 0xBF, 0xBF
218+  8604 BF BF BF BF
219+  8608 FF 00 60 F0  	DEFB	0xFF, 0x00, 0x60, 0xF0, 0xF8, 0xF8, 0xF8, 0xF8
219+  860C F8 F8 F8 F8
220+  8610 FF C2 75 3C  	DEFB	0xFF, 0xC2, 0x75, 0x3C, 0x1F, 0x10, 0x5E, 0xA2
220+  8614 1F 10 5E A2
221+  8618 FF 11 3A FC  	DEFB	0xFF, 0x11, 0x3A, 0xFC, 0xFF, 0x15, 0xF5, 0x15
221+  861C FF 15 F5 15
222+  8620 FF 0C B9 F1  	DEFB	0xFF, 0x0C, 0xB9, 0xF1, 0xE1, 0x7F, 0x7F, 0x7F
222+  8624 E1 7F 7F 7F
223+  8628 FF 01 81 BF  	DEFB	0xFF, 0x01, 0x81, 0xBF, 0x21, 0xF9, 0xE9, 0xEF
223+  862C 21 F9 E9 EF
224+  8630 9F 8F 87 83  	DEFB	0x9F, 0x8F, 0x87, 0x83, 0x81, 0x80, 0x80, 0x80
224+  8634 81 80 80 80
225+  8638 F0 E0 C0 81  	DEFB	0xF0, 0xE0, 0xC0, 0x81, 0x02, 0x02, 0x01, 0x3F
225+  863C 02 02 01 3F
226+  8640 BA 62 23 A0  	DEFB	0xBA, 0x62, 0x23, 0xA0, 0xB7, 0x30, 0xD2, 0x90
226+  8644 B7 30 D2 90
227+  8648 D4 14 92 0A  	DEFB	0xD4, 0x14, 0x92, 0x0A, 0xCA, 0x1A, 0x32, 0xEF
227+  864C CA 1A 32 EF
228+  8650 31 A9 AB AB  	DEFB	0x31, 0xA9, 0xAB, 0xAB, 0xA8, 0xAE, 0xBF, 0x06
228+  8654 A8 AE BF 06
229+  8658 23 3F 45 83  	DEFB	0x23, 0x3F, 0x45, 0x83, 0x01, 0x59, 0xDD, 0x7F
229+  865C 01 59 DD 7F
230+  8660 81 87 9F BE  	DEFB	0x81, 0x87, 0x9F, 0xBE, 0xF9, 0xE7, 0x9F, 0xFF
230+  8664 F9 E7 9F FF
231+  8668 D8 CC A0 73  	DEFB	0xD8, 0xCC, 0xA0, 0x73, 0xF9, 0xFC, 0x7F, 0x3F
231+  866C F9 FC 7F 3F
232+  8670 7F 3F 1F 1F  	DEFB	0x7F, 0x3F, 0x1F, 0x1F, 0x8F, 0x0F, 0xFC, 0xFC
232+  8674 8F 0F FC FC
233+  8678 F2 F2 CC CC  	DEFB	0xF2, 0xF2, 0xCC, 0xCC, 0x3D, 0x3D, 0xFC, 0xFC
233+  867C 3D 3D FC FC
234+  8680 4A 91 31 38  	DEFB	0x4A, 0x91, 0x31, 0x38, 0x7C, 0x7C, 0xFE, 0xFE
234+  8684 7C 7C FE FE
235+  8688 7F BF CF E1  	DEFB	0x7F, 0xBF, 0xCF, 0xE1, 0xE7, 0xEB, 0xED, 0xEB
235+  868C E7 EB ED EB
236+  8690 FF FE FC E6  	DEFB	0xFF, 0xFE, 0xFC, 0xE6, 0xD7, 0xB6, 0xD4, 0xE0
236+  8694 D7 B6 D4 E0
237+  8698 88 08 08 08  	DEFB	0x88, 0x08, 0x08, 0x08, 0x88, 0x17, 0x21, 0x41
237+  869C 88 17 21 41
238+  86A0 07 07 07 07  	DEFB	0x07, 0x07, 0x07, 0x07, 0x1F, 0xF0, 0x12, 0x17
238+  86A4 1F F0 12 17
239+  86A8 F8 F8 F8 FA  	DEFB	0xF8, 0xF8, 0xF8, 0xFA, 0xFA, 0x08, 0x48, 0xE8
239+  86AC FA 08 48 E8
240+  86B0 FE FE FC FC  	DEFB	0xFE, 0xFE, 0xFC, 0xFC, 0xF8, 0xF0, 0xE0, 0xC1
240+  86B4 F8 F0 E0 C1
241+  86B8 27 2B 2D 6B  	DEFB	0x27, 0x2B, 0x2D, 0x6B, 0x67, 0x6B, 0xED, 0xEB
241+  86BC 67 6B ED EB
242+  86C0              	; jack of spades
243+  86C0              	;
244+  86C0 FF 80 81 83  	DEFB	0xFF, 0x80, 0x81, 0x83, 0x87, 0x8F, 0x9F, 0x9F
244+  86C4 87 8F 9F 9F
245+  86C8 FF 0F 07 83  	DEFB	0xFF, 0x0F, 0x07, 0x83, 0xC1, 0xE0, 0xF0, 0xF0
245+  86CC C1 E0 F0 F0
246+  86D0 FF FF FF FF  	DEFB	0xFF, 0xFF, 0xFF, 0xFF, 0xFF, 0xFF, 0xAA, 0xAA
246+  86D4 FF FF AA AA
247+  86D8 FF FF FF FF  	DEFB	0xFF, 0xFF, 0xFF, 0xFF, 0xFF, 0xFF, 0x00, 0x0F
247+  86DC FF FF 00 0F
248+  86E0 FF FE FC F8  	DEFB	0xFF, 0xFE, 0xFC, 0xF8, 0xF0, 0xE0, 0x40, 0xC1
248+  86E4 F0 E0 40 C1
249+  86E8 FF 25 5B 5B  	DEFB	0xFF, 0x25, 0x5B, 0x5B, 0x2D, 0x55, 0xBB, 0x7D
249+  86EC 2D 55 BB 7D
250+  86F0 BF BF 9D 81  	DEFB	0xBF, 0xBF, 0x9D, 0x81, 0x83, 0x87, 0x80, 0x80
250+  86F4 83 87 80 80
251+  86F8 F8 F8 70 00  	DEFB	0xF8, 0xF8, 0x70, 0x00, 0x81, 0xC1, 0x02, 0x01
251+  86FC 81 C1 02 01
252+  8700 AA AA AA AA  	DEFB	0xAA, 0xAA, 0xAA, 0xAA, 0x6A, 0x59, 0xAC, 0x77
252+  8704 6A 59 AC 77
253+  8708 80 86 80 80  	DEFB	0x80, 0x86, 0x80, 0x80, 0x41, 0x2F, 0xC0, 0x87
253+  870C 41 2F C0 87
254+  8710 40 40 40 20  	DEFB	0x40, 0x40, 0x40, 0x20, 0xC0, 0x80, 0x81, 0x81
254+  8714 C0 80 81 81
255+  8718 BB 55 2D 5B  	DEFB	0xBB, 0x55, 0x2D, 0x5B, 0x5B, 0x25, 0xFF, 0x21
255+  871C 5B 25 FF 21
256+  8720 80 80 83 9F  	DEFB	0x80, 0x80, 0x83, 0x9F, 0xFF, 0xBE, 0xA2, 0xBE
256+  8724 FF BE A2 BE
257+  8728 19 7C FD FD  	DEFB	0x19, 0x7C, 0xFD, 0xFD, 0xFD, 0xF5, 0xF5, 0xF9
257+  872C FD F5 F5 F9
258+  8730 AE 59 86 80  	DEFB	0xAE, 0x59, 0x86, 0x80, 0x86, 0x80, 0xFF, 0x9F
258+  8734 86 80 FF 9F
259+  8738 80 81 7E 00  	DEFB	0x80, 0x81, 0x7E, 0x00, 0x66, 0x00, 0xFF, 0xFF
259+  873C 66 00 FF FF
260+  8740 F9 7F 56 56  	DEFB	0xF9, 0x7F, 0x56, 0x56, 0xB6, 0xAE, 0x6F, 0x5F
260+  8744 B6 AE 6F 5F
261+  8748 21 E1 FF F1  	DEFB	0x21, 0xE1, 0xFF, 0xF1, 0x91, 0xF1, 0x79, 0x79
261+  874C 91 F1 79 79
262+  8750 B9 A7 DC D3  	DEFB	0xB9, 0xA7, 0xDC, 0xD3, 0xEF, 0xEE, 0xB5, 0xD7
262+  8754 EF EE B5 D7
263+  8758 7D 7E BF BF  	DEFB	0x7D, 0x7E, 0xBF, 0xBF, 0x5F, 0xEF, 0xB7, 0x69
263+  875C 5F EF B7 69
264+  8760 63 6C 2D CD  	DEFB	0x63, 0x6C, 0x2D, 0xCD, 0xF0, 0xF0, 0xFF, 0xFD
264+  8764 F0 F0 FF FD
265+  8768 F0 7F BA BA  	DEFB	0xF0, 0x7F, 0xBA, 0xBA, 0x0A, 0x0E, 0xF1, 0xBC
265+  876C 0A 0E F1 BC
266+  8770 7F 9F E7 D9  	DEFB	0x7F, 0x9F, 0xE7, 0xD9, 0xD6, 0xB7, 0xAD, 0x6B
266+  8774 D6 B7 AD 6B
267+  8778 7D BF BB D7  	DEFB	0x7D, 0xBF, 0xBB, 0xD7, 0xDF, 0x5F, 0xAF, 0x57
267+  877C DF 5F AF 57
268+  8780              	; queen of spades
269+  8780              	;
270+  8780 FF 80 81 83  	DEFB	0xFF, 0x80, 0x81, 0x83, 0x87, 0x8F, 0x9F, 0x9F
270+  8784 87 8F 9F 9F
271+  8788 FF 02 01 81  	DEFB	0xFF, 0x02, 0x01, 0x81, 0xC0, 0xE0, 0xF0, 0xF0
271+  878C C0 E0 F0 F0
272+  8790 FF 8F 9F 9F  	DEFB	0xFF, 0x8F, 0x9F, 0x9F, 0xCF, 0xC3, 0xCF, 0x7F
272+  8794 CF C3 CF 7F
273+  8798 FF FD FA F4  	DEFB	0xFF, 0xFD, 0xFA, 0xF4, 0xF0, 0xEF, 0xE0, 0xC7
273+  879C F0 EF E0 C7
274+  87A0 FF 54 2A 1E  	DEFB	0xFF, 0x54, 0x2A, 0x1E, 0x06, 0x7E, 0x46, 0x5E
274+  87A4 06 7E 46 5E
275+  87A8 FF 09 09 15  	DEFB	0xFF, 0x09, 0x09, 0x15, 0x15, 0x23, 0x23, 0x37
275+  87AC 15 23 23 37
276+  87B0 BF BF 9D 81  	DEFB	0xBF, 0xBF, 0x9D, 0x81, 0x83, 0x87, 0x88, 0x94
276+  87B4 83 87 88 94
277+  87B8 F8 F8 70 00  	DEFB	0xF8, 0xF8, 0x70, 0x00, 0x80, 0xC1, 0x07, 0x0E
277+  87BC 80 C1 07 0E
278+  87C0 3F 1F 1F 3F  	DEFB	0x3F, 0x1F, 0x1F, 0x3F, 0x78, 0xFF, 0x81, 0x7F
278+  87C4 78 FF 81 7F
279+  87C8 C0 81 81 40  	DEFB	0xC0, 0x81, 0x81, 0x40, 0x23, 0xF0, 0x78, 0x84
279+  87CC 23 F0 78 84
280+  87D0 47 C7 07 07  	DEFB	0x47, 0xC7, 0x07, 0x07, 0xCF, 0x0F, 0x93, 0x27
280+  87D4 CF 0F 93 27
281+  87D8 41 55 37 95  	DEFB	0x41, 0x55, 0x37, 0x95, 0x95, 0x15, 0x95, 0x75
281+  87DC 95 15 95 75
282+  87E0 B6 C1 B7 95  	DEFB	0xB6, 0xC1, 0xB7, 0x95, 0x8E, 0x9C, 0xFF, 0xFF
282+  87E4 8E 9C FF FF
283+  87E8 1F 7F B3 21  	DEFB	0x1F, 0x7F, 0xB3, 0x21, 0x41, 0x9D, 0x0C, 0x94
283+  87EC 41 9D 0C 94
284+  87F0 B0 CF F4 FB  	DEFB	0xB0, 0xCF, 0xF4, 0xFB, 0xFD, 0xFE, 0xFF, 0xFF
284+  87F4 FD FE FF FF
285+  87F8 5F E0 13 FC  	DEFB	0x5F, 0xE0, 0x13, 0xFC, 0x83, 0x7F, 0xA0, 0xDF
285+  87FC 83 7F A0 DF
286+  8800 FF 8E F6 9E  	DEFB	0xFF, 0x8E, 0xF6, 0x9E, 0xA6, 0xFD, 0x25, 0xDD
286+  8804 A6 FD 25 DD
287+  8808 7D F5 F5 FD  	DEFB	0x7D, 0xF5, 0xF5, 0xFD, 0xF5, 0xF5, 0xF5, 0xFD
287+  880C F5 F5 F5 FD
288+  8810 98 88 88 98  	DEFB	0x98, 0x88, 0x88, 0x98, 0xE7, 0xC0, 0x81, 0xB8
288+  8814 E7 C0 81 B8
289+  8818 40 40 5C 4D  	DEFB	0x40, 0x40, 0x5C, 0x4D, 0x95, 0x03, 0xC3, 0xC7
289+  881C 95 03 C3 C7
290+  8820 87 FB 8D F6  	DEFB	0x87, 0xFB, 0x8D, 0xF6, 0x00, 0xFF, 0x6B, 0xFF
290+  8824 00 FF 6B FF
291+  8828 E8 F6 FB FD  	DEFB	0xE8, 0xF6, 0xFB, 0xFD, 0x00, 0xFF, 0x5A, 0xFF
291+  882C 00 FF 5A FF
292+  8830 53 8B 8B FB  	DEFB	0x53, 0x8B, 0x8B, 0xFB, 0x02, 0xFC, 0xD8, 0xF2
292+  8834 02 FC D8 F2
293+  8838 E9 C5 AB 31  	DEFB	0xE9, 0xC5, 0xAB, 0x31, 0x39, 0x01, 0x15, 0x99
293+  883C 39 01 15 99
294+  8840              	; king of spades
295+  8840              	;
296+  8840 FF 80 81 83  	DEFB	0xFF, 0x80, 0x81, 0x83, 0x87, 0x8F, 0x9F, 0xBF
296+  8844 87 8F 9F BF
297+  8848 FF 60 39 9E  	DEFB	0xFF, 0x60, 0x39, 0x9E, 0xCF, 0xE7, 0xF3, 0xF9
297+  884C CF E7 F3 F9
298+  8850 FF 83 47 2F  	DEFB	0xFF, 0x83, 0x47, 0x2F, 0x9F, 0xFF, 0xFF, 0x55
298+  8854 9F FF FF 55
299+  8858 FF 04 8A D1  	DEFB	0xFF, 0x04, 0x8A, 0xD1, 0xE1, 0xF7, 0xFF, 0x00
299+  885C E1 F7 FF 00
300+  8860 FF 06 04 78  	DEFB	0xFF, 0x06, 0x04, 0x78, 0xF0, 0xE0, 0xC0, 0x40
300+  8864 F0 E0 C0 40
301+  8868 FF 01 31 31  	DEFB	0xFF, 0x01, 0x31, 0x31, 0x59, 0x59, 0x59, 0x59
301+  886C 59 59 59 59
302+  8870 BF BF 9D 81  	DEFB	0xBF, 0xBF, 0x9D, 0x81, 0x83, 0x87, 0x80, 0x80
302+  8874 83 87 80 80
303+  8878 F9 F9 71 01  	DEFB	0xF9, 0xF9, 0x71, 0x01, 0x81, 0xC1, 0x01, 0x0D
303+  887C 81 C1 01 0D
304+  8880 55 55 55 55  	DEFB	0x55, 0x55, 0x55, 0x55, 0x55, 0x55, 0x55, 0x55
304+  8884 55 55 55 55
305+  8888 00 77 04 35  	DEFB	0x00, 0x77, 0x04, 0x35, 0x04, 0x1C, 0x99, 0x66
305+  888C 04 1C 99 66
306+  8890 40 C0 40 C0  	DEFB	0x40, 0xC0, 0x40, 0xC0, 0x40, 0x40, 0x40, 0x40
306+  8894 40 40 40 40
307+  8898 59 59 59 59  	DEFB	0x59, 0x59, 0x59, 0x59, 0x59, 0x59, 0x59, 0x59
307+  889C 59 59 59 59
308+  88A0 80 80 80 87  	DEFB	0x80, 0x80, 0x80, 0x87, 0xBF, 0xFF, 0xFF, 0xFF
308+  88A4 BF FF FF FF
309+  88A8 11 12 0C 71  	DEFB	0x11, 0x12, 0x0C, 0x71, 0xBF, 0xDF, 0xAF, 0xAF
309+  88AC BF DF AF AF
310+  88B0 56 AB 02 78  	DEFB	0x56, 0xAB, 0x02, 0x78, 0x76, 0xBE, 0xBB, 0xDF
310+  88B4 76 BE BB DF
311+  88B8 00 3E 81 FE  	DEFB	0x00, 0x3E, 0x81, 0xFE, 0xAA, 0x00, 0xBD, 0xFB
311+  88BC AA 00 BD FB
312+  88C0 80 80 BE BE  	DEFB	0x80, 0x80, 0xBE, 0xBE, 0x3D, 0xFB, 0xF7, 0xF7
312+  88C4 3D FB F7 F7
313+  88C8 59 59 59 59  	DEFB	0x59, 0x59, 0x59, 0x59, 0x5B, 0x5B, 0x5B, 0x5B
313+  88CC 5B 5B 5B 5B
314+  88D0 F2 FF E1 E1  	DEFB	0xF2, 0xFF, 0xE1, 0xE1, 0xE1, 0xE1, 0xE1, 0xFF
314+  88D4 E1 E1 E1 FF
315+  88D8 77 77 7B 7B  	DEFB	0x77, 0x77, 0x7B, 0x7B, 0xBD, 0xBD, 0xCD, 0xF1
315+  88DC BD BD CD F1
316+  88E0 DD DF C2 DC  	DEFB	0xDD, 0xDF, 0xC2, 0xDC, 0xDF, 0xDE, 0xDE, 0xD9
316+  88E4 DF DE DE D9
317+  88E8 7B FB C3 3B  	DEFB	0x7B, 0xFB, 0xC3, 0x3B, 0xFB, 0x7B, 0x7B, 0x9B
317+  88EC FB 7B 7B 9B
318+  88F0 E1 EF C3 DF  	DEFB	0xE1, 0xEF, 0xC3, 0xDF, 0x87, 0xB8, 0xBB, 0xBB
318+  88F4 87 B8 BB BB
319+  88F8 5B 5B 5B 5B  	DEFB	0x5B, 0x5B, 0x5B, 0x5B, 0x59, 0x5B, 0xFF, 0x59
319+  88FC 59 5B FF 59
320+  8900
321+  8900              jokerCardData
322+  8900 00 00 00 00  	DEFB	0x00, 0x00, 0x00, 0x00, 0x00, 0x00, 0x00, 0x00
322+  8904 00 00 00 00
323+  8908 00 00 00 00  	DEFB	0x00, 0x00, 0x00, 0x00, 0x00, 0x00, 0x00, 0x00
323+  890C 00 00 00 00
324+  8910 00 00 00 01  	DEFB	0x00, 0x00, 0x00, 0x01, 0x03, 0x07, 0x7F, 0xF8
324+  8914 03 07 7F F8
325+  8918 00 00 00 80  	DEFB	0x00, 0x00, 0x00, 0x80, 0xC0, 0xE0, 0xFE, 0x11
325+  891C C0 E0 FE 11
326+  8920 00 00 00 00  	DEFB	0x00, 0x00, 0x00, 0x00, 0x00, 0x00, 0x00, 0x00
326+  8924 00 00 00 00
327+  8928 00 00 00 00  	DEFB	0x00, 0x00, 0x00, 0x00, 0x00, 0x00, 0x00, 0x00
327+  892C 00 00 00 00
328+  8930 00 00 00 00  	DEFB	0x00, 0x00, 0x00, 0x00, 0x00, 0x00, 0x00, 0x00
328+  8934 00 00 00 00
329+  8938 01 01 01 01  	DEFB	0x01, 0x01, 0x01, 0x01, 0x00, 0x00, 0x00, 0x00
329+  893C 00 00 00 00
330+  8940 F8 C8 88 04  	DEFB	0xF8, 0xC8, 0x88, 0x04, 0x03, 0x00, 0x0F, 0x1F
330+  8944 03 00 0F 1F
331+  8948 1C 12 11 20  	DEFB	0x1C, 0x12, 0x11, 0x20, 0xC0, 0xFE, 0x0F, 0x07
331+  894C C0 FE 0F 07
332+  8950 80 80 80 80  	DEFB	0x80, 0x80, 0x80, 0x80, 0x03, 0x04, 0x84, 0xE4
332+  8954 03 04 84 E4
333+  8958 00 00 00 00  	DEFB	0x00, 0x00, 0x00, 0x00, 0x00, 0x80, 0x80, 0x80
333+  895C 00 80 80 80
334+  8960 00 00 00 00  	DEFB	0x00, 0x00, 0x00, 0x00, 0x00, 0x00, 0x00, 0x00
334+  8964 00 00 00 00
335+  8968 00 00 00 01  	DEFB	0x00, 0x00, 0x00, 0x01, 0x01, 0x01, 0x02, 0x02
335+  896C 01 01 02 02
336+  8970 2B 42 80 07  	DEFB	0x2B, 0x42, 0x80, 0x07, 0x0C, 0x38, 0x09, 0x0A
336+  8974 0C 38 09 0A
337+  8978 2F BF FC F8  	DEFB	0x2F, 0xBF, 0xFC, 0xF8, 0xF8, 0xF8, 0xF8, 0xF8
337+  897C F8 F8 F8 F8
338+  8980 F3 FB FF 3F  	DEFB	0xF3, 0xFB, 0xFF, 0x3F, 0x0F, 0x07, 0x03, 0x00
338+  8984 0F 07 03 00
339+  8988 00 00 00 00  	DEFB	0x00, 0x00, 0x00, 0x00, 0x00, 0x00, 0x00, 0x00
339+  898C 00 00 00 00
340+  8990 00 00 00 00  	DEFB	0x00, 0x00, 0x00, 0x00, 0x00, 0x00, 0x00, 0x00
340+  8994 00 00 00 00
341+  8998 02 01 00 00  	DEFB	0x02, 0x01, 0x00, 0x00, 0x00, 0x00, 0x00, 0x00
341+  899C 00 00 00 00
342+  89A0 0C 38 C8 08  	DEFB	0x0C, 0x38, 0xC8, 0x08, 0x08, 0x08, 0x1F, 0x3F
342+  89A4 08 08 1F 3F
343+  89A8 F0 F0 F0 F0  	DEFB	0xF0, 0xF0, 0xF0, 0xF0, 0xF0, 0xF0, 0x10, 0x08
343+  89AC F0 F0 10 08
344+  89B0 00 00 00 00  	DEFB	0x00, 0x00, 0x00, 0x00, 0x00, 0x00, 0x00, 0x00
344+  89B4 00 00 00 00
345+  89B8 00 00 00 00  	DEFB	0x00, 0x00, 0x00, 0x00, 0x00, 0x00, 0x00, 0x00
345+  89BC 00 00 00 00
346+  89C0 00 00 00 00  	DEFB	0x00, 0x00, 0x00, 0x00, 0x00, 0x00, 0x00, 0x00
346+  89C4 00 00 00 00
347+  89C8 00 00 01 02  	DEFB	0x00, 0x00, 0x01, 0x02, 0x04, 0x58, 0x70, 0xF0
347+  89CC 04 58 70 F0
348+  89D0 5F 9F 1F 3F  	DEFB	0x5F, 0x9F, 0x1F, 0x3F, 0x3D, 0x35, 0x35, 0x24
348+  89D4 3D 35 35 24
349+  89D8 08 08 08 04  	DEFB	0x08, 0x08, 0x08, 0x04, 0x44, 0x54, 0x54, 0xDC
349+  89DC 44 54 54 DC
350+  89E0 00 00 00 00  	DEFB	0x00, 0x00, 0x00, 0x00, 0x00, 0x00, 0x00, 0x00
350+  89E4 00 00 00 00
351+  89E8 00 00 00 00  	DEFB	0x00, 0x00, 0x00, 0x00, 0x00, 0x00, 0x00, 0x00
351+  89EC 00 00 00 00
352+  89F0 00 00 00 00  	DEFB	0x00, 0x00, 0x00, 0x00, 0x00, 0x00, 0x00, 0x00
352+  89F4 00 00 00 00
353+  89F8 E0 C0 80 40  	DEFB	0xE0, 0xC0, 0x80, 0x40, 0x00, 0x00, 0x00, 0x00
353+  89FC 00 00 00 00
354+  8A00 34 10 18 08  	DEFB	0x34, 0x10, 0x18, 0x08, 0x08, 0x08, 0x08, 0x08
354+  8A04 08 08 08 08
355+  8A08 DC F8 F8 F0  	DEFB	0xDC, 0xF8, 0xF8, 0xF0, 0xF0, 0xF0, 0xF0, 0xF0
355+  8A0C F0 F0 F0 F0
356+  8A10 00 00 00 00  	DEFB	0x00, 0x00, 0x00, 0x00, 0x00, 0x00, 0x00, 0x00
356+  8A14 00 00 00 00
357+  8A18 00 00 00 00  	DEFB	0x00, 0x00, 0x00, 0x00, 0x00, 0x00, 0x00, 0x00
357+  8A1C 00 00 00 00
358+  8A20 00 00 00 00  	DEFB	0x00, 0x00, 0x00, 0x00, 0x00, 0x00, 0x00, 0x00
358+  8A24 00 00 00 00
359+  8A28 00 00 00 00  	DEFB	0x00, 0x00, 0x00, 0x00, 0x00, 0x00, 0x00, 0x00
359+  8A2C 00 00 00 00
360+  8A30 08 08 08 48  	DEFB	0x08, 0x08, 0x08, 0x48, 0x3E, 0x1F, 0x0F, 0x07
360+  8A34 3E 1F 0F 07
361+  8A38 F0 F0 F0 F2  	DEFB	0xF0, 0xF0, 0xF0, 0xF2, 0x7C, 0x68, 0x50, 0x20
361+  8A3C 7C 68 50 20
362+  8A40 00 00 00 00  	DEFB	0x00, 0x00, 0x00, 0x00, 0x00, 0x00, 0x00, 0x00
362+  8A44 00 00 00 00
363+  8A48 00 00 00 00  	DEFB	0x00, 0x00, 0x00, 0x00, 0x00, 0x00, 0x00, 0x00
363+  8A4C 00 00 00 00
364+  8A50 00 00 00 00  	DEFB	0x00, 0x00, 0x00, 0x00, 0x00, 0x00, 0x00, 0x00
364+  8A54 00 00 00 00
365+  8A58 00 00 00 00  	DEFB	0x00, 0x00, 0x00, 0x00, 0x00, 0x00, 0x00, 0x00
365+  8A5C 00 00 00 00
366+  8A60 03 07 0F 3E  	DEFB	0x03, 0x07, 0x0F, 0x3E, 0xFC, 0x00, 0x00, 0x00
366+  8A64 FC 00 00 00
367+  8A68 40 20 90 4C  	DEFB	0x40, 0x20, 0x90, 0x4C, 0x3F, 0x00, 0x00, 0x00
367+  8A6C 3F 00 00 00
368+  8A70 00 00 00 00  	DEFB	0x00, 0x00, 0x00, 0x00, 0x00, 0x00, 0x00, 0x00
368+  8A74 00 00 00 00
369+  8A78 00 00 00 00  	DEFB	0x00, 0x00, 0x00, 0x00, 0x00, 0x00, 0x00, 0x00
369+  8A7C 00 00 00 00
370+  8A80              aceOfSpadesCardData
371+  8A80 00 00 00 00  	DEFB	0x00, 0x00, 0x00, 0x00, 0x00, 0x00, 0x00, 0x00
371+  8A84 00 00 00 00
372+  8A88 00 00 00 00  	DEFB	0x00, 0x00, 0x00, 0x00, 0x00, 0x00, 0x00, 0x00
372+  8A8C 00 00 00 00
373+  8A90 00 00 00 00  	DEFB	0x00, 0x00, 0x00, 0x00, 0x00, 0x00, 0x00, 0x01
373+  8A94 00 00 00 01
374+  8A98 00 00 00 00  	DEFB	0x00, 0x00, 0x00, 0x00, 0x00, 0x00, 0x00, 0x00
374+  8A9C 00 00 00 00
375+  8AA0 00 00 00 00  	DEFB	0x00, 0x00, 0x00, 0x00, 0x00, 0x00, 0x00, 0x01
375+  8AA4 00 00 00 01
376+  8AA8 03 07 0E 1D  	DEFB	0x03, 0x07, 0x0E, 0x1D, 0x3F, 0x70, 0xFF, 0x8F
376+  8AAC 3F 70 FF 8F
377+  8AB0 00 00 00 00  	DEFB	0x00, 0x00, 0x00, 0x00, 0x00, 0x00, 0x00, 0x00
377+  8AB4 00 00 00 00
378+  8AB8 03 06 06 0E  	DEFB	0x03, 0x06, 0x06, 0x0E, 0x1E, 0x1B, 0x3E, 0x36
378+  8ABC 1E 1B 3E 36
379+  8AC0 6E EF EF D8  	DEFB	0x6E, 0xEF, 0xEF, 0xD8, 0x22, 0xC8, 0x83, 0xA7
379+  8AC4 22 C8 83 A7
380+  8AC8 00 00 00 00  	DEFB	0x00, 0x00, 0x00, 0x00, 0x01, 0x01, 0x01, 0x03
380+  8ACC 01 01 01 03
381+  8AD0 69 DD E3 E2  	DEFB	0x69, 0xDD, 0xE3, 0xE2, 0xE2, 0x9E, 0x9E, 0x7E
381+  8AD4 E2 9E 9E 7E
382+  8AD8              	IFDEF	ZXN_CARDS_LIB
383+  8AD8 0E 1B 75 2E  		DEFB	0x0E, 0x1B, 0x75, 0x2E,0xA0,0x2E,0xAE,0x1F
383+  8ADC A0 2E AE 1F
384+  8AE0              	ELSE
385+  8AE0 ~            		DEFB	0x0E, 0x1F, 0x60, 0x3B, 0xBB, 0x3B, 0xBB, 0x1F
386+  8AE0              	ENDIF
387+  8AE0 03 03 03 07  	DEFB	0x03, 0x03, 0x03, 0x07, 0x07, 0x07, 0x06, 0x06
387+  8AE4 07 07 06 06
388+  8AE8 FF C7 DB BD  	DEFB	0xFF, 0xC7, 0xDB, 0xBD, 0xA5, 0xBE, 0xFE, 0xFF
388+  8AEC A5 BE FE FF
389+  8AF0 5B 1F 0F A7  	DEFB	0x5B, 0x1F, 0x0F, 0xA7, 0x83, 0xC8, 0xE2, 0x78
389+  8AF4 83 C8 E2 78
390+  8AF8 06 06 06 06  	DEFB	0x06, 0x06, 0x06, 0x06, 0x03, 0x03, 0x01, 0x01
390+  8AFC 03 03 01 01
391+  8B00 E7 E7 87 84  	DEFB	0xE7, 0xE7, 0x87, 0x84, 0xFB, 0x74, 0x34, 0xBB
391+  8B04 FB 74 34 BB
392+  8B08 BF DF EE 95  	DEFB	0xBF, 0xDF, 0xEE, 0x95, 0x7B, 0xBB, 0xBD, 0x54
392+  8B0C 7B BB BD 54
393+  8B10 00 00 00 00  	DEFB	0x00, 0x00, 0x00, 0x00, 0x00, 0x00, 0x00, 0x00
393+  8B14 00 00 00 00
394+  8B18 FC 63 3F 0F  	DEFB	0xFC, 0x63, 0x3F, 0x0F, 0x00, 0x00, 0x00, 0x00
394+  8B1C 00 00 00 00
395+  8B20 EF D7 FE 0D  	DEFB	0xEF, 0xD7, 0xFE, 0x0D, 0x0D, 0x1E, 0x1F, 0x1B
395+  8B24 0D 1E 1F 1B
396+  8B28 00 00 00 00  	DEFB	0x00, 0x00, 0x00, 0x00, 0x00, 0x00, 0x00, 0x00
396+  8B2C 00 00 00 00
397+  8B30 00 00 00 00  	DEFB	0x00, 0x00, 0x00, 0x00, 0x00, 0x00, 0x00, 0x00
397+  8B34 00 00 00 00
398+  8B38 3A 26 27 7F  	DEFB	0x3A, 0x26, 0x27, 0x7F, 0x00, 0x00, 0x00, 0x00
398+  8B3C 00 00 00 00
399+  8B40              largeSuitCharData
400+  8B40              	; diamond
401+  8B40              	;
402+  8B40 00 00 01 03  	DEFB	0x00, 0x00, 0x01, 0x03, 0x07, 0x0F, 0x1F, 0x3F
402+  8B44 07 0F 1F 3F
403+  8B48 00 00 00 80  	DEFB	0x00, 0x00, 0x00, 0x80, 0xC0, 0xE0, 0xF0, 0xF8
403+  8B4C C0 E0 F0 F8
404+  8B50 1F 0F 07 03  	DEFB	0x1F, 0x0F, 0x07, 0x03, 0x01, 0x00, 0x00, 0x00
404+  8B54 01 00 00 00
405+  8B58 F0 E0 C0 80  	DEFB	0xF0, 0xE0, 0xC0, 0x80, 0x00, 0x00, 0x00, 0x00
405+  8B5C 00 00 00 00
406+  8B60              	; clubs
407+  8B60              	;
408+  8B60 00 00 03 07  	DEFB	0x00, 0x00, 0x03, 0x07, 0x07, 0x1B, 0x3F, 0x3F
408+  8B64 07 1B 3F 3F
409+  8B68 00 00 80 C0  	DEFB	0x00, 0x00, 0x80, 0xC0, 0xC0, 0xB0, 0xF8, 0xF8
409+  8B6C C0 B0 F8 F8
410+  8B70 3F 19 01 03  	DEFB	0x3F, 0x19, 0x01, 0x03, 0x07, 0x00, 0x00, 0x00
410+  8B74 07 00 00 00
411+  8B78 F8 30 00 80  	DEFB	0xF8, 0x30, 0x00, 0x80, 0xC0, 0x00, 0x00, 0x00
411+  8B7C C0 00 00 00
412+  8B80              	; hearts
413+  8B80              	;
414+  8B80 00 00 0C 1E  	DEFB	0x00, 0x00, 0x0C, 0x1E, 0x3F, 0x3F, 0x3F, 0x3F
414+  8B84 3F 3F 3F 3F
415+  8B88 00 00 60 F0  	DEFB	0x00, 0x00, 0x60, 0xF0, 0xF8, 0xF8, 0xF8, 0xF8
415+  8B8C F8 F8 F8 F8
416+  8B90 1F 0F 07 03  	DEFB	0x1F, 0x0F, 0x07, 0x03, 0x01, 0x00, 0x00, 0x00
416+  8B94 01 00 00 00
417+  8B98 F0 E0 C0 80  	DEFB	0xF0, 0xE0, 0xC0, 0x80, 0x00, 0x00, 0x00, 0x00
417+  8B9C 00 00 00 00
418+  8BA0              	; spades
419+  8BA0              	;
420+  8BA0 00 00 01 03  	DEFB	0x00, 0x00, 0x01, 0x03, 0x07, 0x0F, 0x1F, 0x3F
420+  8BA4 07 0F 1F 3F
421+  8BA8 00 00 00 80  	DEFB	0x00, 0x00, 0x00, 0x80, 0xC0, 0xE0, 0xF0, 0xF8
421+  8BAC C0 E0 F0 F8
422+  8BB0 3F 3F 1D 01  	DEFB	0x3F, 0x3F, 0x1D, 0x01, 0x03, 0x07, 0x00, 0x00
422+  8BB4 03 07 00 00
423+  8BB8 F8 F8 70 00  	DEFB	0xF8, 0xF8, 0x70, 0x00, 0x80, 0xC0, 0x00, 0x00
423+  8BBC 80 C0 00 00
424+  8BC0              smallSuitCharData
425+  8BC0              	; diamond
426+  8BC0              	;
427+  8BC0 00 10 38 7C  	DEFB	0x00, 0x10, 0x38, 0x7C, 0xFE, 0x7C, 0x38, 0x10
427+  8BC4 FE 7C 38 10
428+  8BC8              	; clubs
429+  8BC8              	;
430+  8BC8 00 38 38 FE  	DEFB	0x00, 0x38, 0x38, 0xFE, 0xFE, 0xD6, 0x10, 0x38
430+  8BCC FE D6 10 38
431+  8BD0              	; hearts
432+  8BD0              	;
433+  8BD0 00 6C FE FE  	DEFB	0x00, 0x6C, 0xFE, 0xFE, 0x7C, 0x38, 0x10, 0x10
433+  8BD4 7C 38 10 10
434+  8BD8              	; spades
435+  8BD8              	;
436+  8BD8 00 10 38 7C  	DEFB	0x00, 0x10, 0x38, 0x7C, 0xFE, 0xD6, 0x10, 0x38
436+  8BDC FE D6 10 38
437+  8BE0
438+  8BE0              tenCharacterData
439+  8BE0              	; represents 10 in one character
440+  8BE0              	;
441+  8BE0 00 4C 52 52  	DEFB	0x00, 0x4C, 0x52, 0x52, 0x52, 0x52, 0x4C, 0x00
441+  8BE4 52 52 4C 00
442+  8BE8              	; patched into the ace of spades to display original author initials
443+  8BE8              	;
444+  8BE8              aceOfSpadesPatchData
445+  8BE8              	IFDEF	ZXN_CARDS_LIB
446+  8BE8 70 88 76 7C  		DEFB	0x70, 0x88, 0x76, 0x7C, 0x7D, 0x74, 0x8D, 0xF8
446+  8BEC 7D 74 8D F8
447+  8BF0              	ELSE
448+  8BF0 ~            		DEFB	0x70, 0xF8, 0x0E, 0x74, 0x0D, 0x74, 0x0D, 0xF8
449+  8BF0              	ENDIF
450+  8BF0
451+  8BF0              cardBackData
452+  8BF0 F0 96 96 F0  	DEFB	0xF0, 0x96, 0x96, 0xF0, 0x0F, 0x69, 0x69, 0x0F
452+  8BF4 0F 69 69 0F
453+  8BF8
454+  8BF8              ; card value character data table
455+  8BF8              ;
456+  8BF8              characterDataLookup
457+  8BF8              	; uses ROM character data for all except the "10"
458+  8BF8              	;
459+  8BF8 08 3E        	DEFW	0x3E08				; "A"
460+  8BFA 90 3D        	DEFW	0x3D90				; "2"
461+  8BFC 98 3D        	DEFW	0x3D98				; "3"
462+  8BFE A0 3D        	DEFW	0x3DA0				; "4"
463+  8C00 A8 3D        	DEFW	0x3DA8				; "5"
464+  8C02 B0 3D        	DEFW	0x3DB0				; "6"
465+  8C04 B8 3D        	DEFW	0x3DB8				; "7"
466+  8C06 C0 3D        	DEFW	0x3DC0				; "8"
467+  8C08 C8 3D        	DEFW	0x3DC8				; "9"
468+  8C0A E0 8B        	DEFW	tenCharacterData	; "10"
469+  8C0C 50 3E        	DEFW	0x3E50				; "J"
470+  8C0E 88 3E        	DEFW	0x3E88				; "Q"
471+  8C10 58 3E        	DEFW	0x3E58				; "K"
472+  8C12
473+  8C12              ; symbol layout table
474+  8C12              ;
475+  8C12              symbolLayoutTable
476+  8C12              	; offsets for the large symbols displayed on the cards
477+  8C12              	; high nibble is the y offset from top of card in characters
478+  8C12              	;  if high nibble is 5 or more symbol is drawn mirrored horizontally
479+  8C12              	; low nibble is the x offset from left of card in characters
480+  8C12 43           	DEFB	0x43														; 1
481+  8C13 23 63        	DEFB	0x23, 0x63													; 2
482+  8C15 23 43 63     	DEFB	0x23, 0x43, 0x63											; 3
483+  8C18 21 25 61 65  	DEFB	0x21, 0x25, 0x61, 0x65										; 4
484+  8C1C 21 25 43 61  	DEFB	0x21, 0x25, 0x43, 0x61, 0x65								; 5
484+  8C20 65
485+  8C21 21 25 41 45  	DEFB	0x21, 0x25, 0x41, 0x45, 0x61, 0x65							; 6
485+  8C25 61 65
486+  8C27 21 25 33 41  	DEFB	0x21, 0x25, 0x33, 0x41, 0x45, 0x61, 0x65					; 7
486+  8C2B 45 61 65
487+  8C2E 21 25 33 41  	DEFB	0x21, 0x25, 0x33, 0x41, 0x45, 0x53, 0x61, 0x65				; 8
487+  8C32 45 53 61 65
488+  8C36 11 15 31 35  	DEFB	0x11, 0x15, 0x31, 0x35, 0x43, 0x51, 0x55, 0x71, 0x75		; 9
488+  8C3A 43 51 55 71
488+  8C3E 75
489+  8C3F 11 15 23 31  	DEFB	0x11, 0x15, 0x23, 0x31, 0x35, 0x51, 0x55, 0x63, 0x71, 0x75	; 10
489+  8C43 35 51 55 63
489+  8C47 71 75
490+  8C49              flags
491+  8C49 00           	DEFB	0x00
492+  8C4A              cardTLDFAddress
493+  8C4A 00 00        	DEFW	0x0000
494+  8C4C
495+  8C4C              	IFDEF	ZXN_CARDS_LIB
496+  8C4C              drawCard
497+  8C4C D5           		PUSH	DE
498+  8C4D CB 00       > RLC B
498+  8C4F CB 00       > RLC B
498+  8C51 CB 00       > RLC B
499+  8C53 58           		LD		E,B
500+  8C54 CB 01       > RLC C
500+  8C56 CB 01       > RLC C
500+  8C58 CB 01       > RLC C
501+  8C5A 51           		LD		D,C
502+  8C5B ED 94        		PIXELAD
503+  8C5D 22 4A 8C     		LD		(cardTLDFAddress),HL
504+  8C60 7C           		LD   	A,H
505+  8C61 0F           		RRCA
506+  8C62 0F           		RRCA
507+  8C63 0F           		RRCA
508+  8C64 E6 03        		AND  	0x03
509+  8C66 F6 58        		OR   	0x58
510+  8C68 67           		LD   	H,A
511+  8C69 C1           		POP		BC
512+  8C6A CD 14 8D     		CALL	doDrawCard
513+  8C6D C9           		RET
514+  8C6E              	ELSE
515+  8C6E ~            readParameter
516+  8C6E ~            		RST		0x18
517+  8C6E ~            		CP		0x2C
518+  8C6E ~            		JP		NZ,0x1C8A
519+  8C6E ~            		RST 	0x20
520+  8C6E ~            		CALL	0x24FB
521+  8C6E ~            		CALL	0x2DD5
522+  8C6E ~            		JR   	C,parameterError
523+  8C6E ~            		RET  	Z
524+  8C6E ~            	parameterError
525+  8C6E ~            		RST  	0x08
526+  8C6E ~            		DEFB	0x09
527+  8C6E              	ENDIF
528+  8C6E
529+  8C6E              offsetDFAddress
530+  8C6E 2A 4A 8C     	LD		HL,(cardTLDFAddress)
531+  8C71 CB 0C        	RRC		H
532+  8C73 CB 0C        	RRC		H
533+  8C75 CB 0C        	RRC		H
534+  8C77              calculateScreenAddress
535+  8C77 11 20 00     	LD		DE,0x0020
536+  8C7A 04           	INC		B
537+  8C7B 18 01        	JR		startCalculating
538+  8C7D              nxtCharLine
539+  8C7D 19           	ADD		HL,DE
540+  8C7E              startCalculating
541+  8C7E 10 FD        	DJNZ	nxtCharLine
542+  8C80 09           	ADD		HL,BC
543+  8C81 5D           	LD		E,L
544+  8C82 7C           	LD		A,H
545+  8C83 E6 03        	AND		0x03
546+  8C85 F6 58        	OR		0x58
547+  8C87 57           	LD		D,A
548+  8C88 CB 04        	RLC		H
549+  8C8A CB 04        	RLC		H
550+  8C8C CB 04        	RLC		H
551+  8C8E C9           	RET
552+  8C8F
553+  8C8F              MIRROR_BYTE				EQU		0x00
554+  8C8F              REVERSE_DATA			EQU		0x01
555+  8C8F              CHAR_REPEAT				EQU		0x02
556+  8C8F              REVERSE_DF_ADDR			EQU		0x03
557+  8C8F              CHAR_LINE_UP			EQU		0x04
558+  8C8F
559+  8C8F              FLAG_DEFAULT			EQU		0x00
560+  8C8F              FLAG_MIRROR_BYTE		EQU		(1 << MIRROR_BYTE)			; 1
561+  8C8F              FLAG_REVERSE_DATA		EQU		(1 << REVERSE_DATA)			; 2
562+  8C8F              FLAG_CHAR_REPEAT		EQU		(1 << CHAR_REPEAT)			; 4
563+  8C8F              FLAG_REVERSE_DF_ADDR	EQU		(1 << REVERSE_DF_ADDR)		; 8
564+  8C8F              FLAG_CHAR_LINE_UP		EQU		(1 << CHAR_LINE_UP)			; 16
565+  8C8F
566+  8C8F              drawCharacters
567+  8C8F C5           	PUSH	BC
568+  8C90 41           	LD		B,C
569+  8C91 E5           	PUSH	HL
570+  8C92              nxtCharacterCell
571+  8C92 C5           	PUSH	BC
572+  8C93 E5           	PUSH	HL
573+  8C94 06 08        	LD		B,0x08
574+  8C96              nxtPixelLine
575+  8C96 1A           	LD		A,(DE)
576+  8C97 DD CB 00 46  	BIT		MIRROR_BYTE,(IX+0x00)
577+  8C9B 28 08        	JR		Z,byteNotMirrored
578+  8C9D 4F           	LD		C,A
579+  8C9E 3E 01        	LD		A,0x01
580+  8CA0              nxtShift
581+  8CA0 CB 19        	RR		C
582+  8CA2 17           	RLA
583+  8CA3 30 FB        	JR		NC,nxtShift
584+  8CA5              byteNotMirrored
585+  8CA5 77           	LD		(HL),A
586+  8CA6 DD CB 00 4E  	BIT		REVERSE_DATA,(IX+0x00)
587+  8CAA 28 02        	JR		Z,advanceCharacterData
588+  8CAC 1B           	DEC		DE
589+  8CAD 1B           	DEC		DE
590+  8CAE              advanceCharacterData
591+  8CAE 13           	INC		DE
592+  8CAF 24           	INC		H
593+  8CB0 10 E4        	DJNZ	nxtPixelLine
594+  8CB2 DD CB 00 56  	BIT		CHAR_REPEAT,(IX+0x00)
595+  8CB6 28 04        	JR		Z,noCharacterRepeat
596+  8CB8 7B           	LD		A,E
597+  8CB9 D6 08        	SUB		0x08
598+  8CBB 5F           	LD		E,A
599+  8CBC              noCharacterRepeat
600+  8CBC E1           	POP		HL
601+  8CBD 23           	INC		HL
602+  8CBE DD CB 00 5E  	BIT		REVERSE_DF_ADDR,(IX+0x00)
603+  8CC2 28 02        	JR		Z,advanceScreenAddress
604+  8CC4 2B           	DEC		HL
605+  8CC5 2B           	DEC		HL
606+  8CC6              advanceScreenAddress
607+  8CC6 C1           	POP		BC
608+  8CC7 10 C9        	DJNZ	nxtCharacterCell
609+  8CC9 E1           	POP		HL
610+  8CCA 01 20 00     	LD		BC,0x0020
611+  8CCD DD CB 00 66  	BIT		CHAR_LINE_UP,(IX+0x00)
612+  8CD1 28 03        	JR		Z,advanceCharacterLine
613+  8CD3 01 E0 FF     	LD		BC,0xFFE0
614+  8CD6              advanceCharacterLine
615+  8CD6 CB 0C        	RRC		H
616+  8CD8 CB 0C        	RRC		H
617+  8CDA CB 0C        	RRC		H
618+  8CDC 09           	ADD		HL,BC
619+  8CDD CB 04        	RLC		H
620+  8CDF CB 04        	RLC		H
621+  8CE1 CB 04        	RLC		H
622+  8CE3 C1           	POP		BC
623+  8CE4 10 A9        	DJNZ	drawCharacters       ; next character line
624+  8CE6 C9           	RET
625+  8CE7              drawCornerCharacters
626+  8CE7 C5           	PUSH	BC
627+  8CE8 C5           	PUSH	BC
628+  8CE9 D5           	PUSH	DE
629+  8CEA 0E 00        	LD		C,0x00
630+  8CEC CD 6E 8C     	CALL	offsetDFAddress
631+  8CEF D1           	POP		DE
632+  8CF0 01 01 01     	LD		BC,0x0101
633+  8CF3 DD 36 00 00  	LD		(IX+0x00),FLAG_DEFAULT
634+  8CF7 CD 8F 8C     	CALL	drawCharacters		; draw top left character
635+  8CFA 1B           	DEC		DE
636+  8CFB C1           	POP		BC
637+  8CFC 3E 09        	LD		A,0x09
638+  8CFE 90           	SUB		B
639+  8CFF 47           	LD		B,A
640+  8D00 0E 07        	LD		C,0x07
641+  8D02 D5           	PUSH	DE
642+  8D03 CD 6E 8C     	CALL	offsetDFAddress
643+  8D06 D1           	POP		DE
644+  8D07 01 01 01     	LD		BC,0x0101
645+  8D0A DD 36 00 03  	LD		(IX+0x00),FLAG_MIRROR_BYTE | FLAG_REVERSE_DATA	;0x03
646+  8D0E CD 8F 8C     	CALL	drawCharacters		; draw mirrored bottom right character
647+  8D11 C1           	POP		BC
648+  8D12 04           	INC		B
649+  8D13 C9           	RET
650+  8D14              	IFNDEF	ZXN_CARDS_LIB
651+  8D14 ~            parameterOutOfRange
652+  8D14 ~            		RST		0x08
653+  8D14 ~            		DEFB	0x09
654+  8D14 ~            		LD		DE,0x1FDB
655+  8D14 ~            nxtPop
656+  8D14 ~            		POP		HL
657+  8D14 ~            		AND		A
658+  8D14 ~            		SBC		HL,DE
659+  8D14 ~            		JR		NZ,nxtPop
660+  8D14 ~            		PUSH	DE
661+  8D14 ~            		LD		A,0x0F + 0x02	; +2 to allow print on bottom two lines
662+  8D14 ~            		SUB		(IY+0x31)
663+  8D14 ~            		PUSH	AF
664+  8D14 ~            		CALL	readParameter
665+  8D14 ~            		POP		BC
666+  8D14 ~            		CP		B           	; max y < 15
667+  8D14 ~            		JR		NC,parameterOutOfRange
668+  8D14 ~            		PUSH	AF
669+  8D14 ~            		CALL	readParameter
670+  8D14 ~            		CP		0x19         	; max x < 25
671+  8D14 ~            		JR		NC,parameterOutOfRange
672+  8D14 ~            		LD		C,A
673+  8D14 ~            		POP		AF
674+  8D14 ~            		LD		B,A
675+  8D14 ~            		LD		HL,0x0800
676+  8D14 ~            		CALL	calculateScreenAddress
677+  8D14 ~            		LD		(cardTLDFAddress),HL
678+  8D14 ~            		PUSH	DE          	; save ATTR address
679+  8D14 ~            		CALL	readParameter
680+  8D14 ~            		CP		0x0E		; max card number check < 14
681+  8D14 ~            		JR		NC,parameterOutOfRange
682+  8D14 ~            		PUSH	AF
683+  8D14 ~            		CALL	readParameter
684+  8D14 ~            		CP		0x05		; max suit check < 5
685+  8D14 ~            		JR		NC,parameterOutOfRange
686+  8D14 ~            		LD		C,A
687+  8D14 ~            		POP		AF
688+  8D14 ~            		LD		B,A
689+  8D14 ~            		POP		HL          	; restore ATTR address
690+  8D14              	ENDIF
691+  8D14              doDrawCard
692+  8D14 C5           	PUSH	BC
693+  8D15 0C           	INC		C
694+  8D16 0D           	DEC		C           	; ATTR	 FBPPPIII
695+  8D17 3E 39        	LD		A,0x39       	;	%00111001 - Blue on White
696+  8D19 28 07        	JR		Z,drawCardBackground     	; branch if suit 0 (back of card)
697+  8D1B CB 41        	BIT		0,C
698+  8D1D 20 02        	JR		NZ,redCard
699+  8D1F 3D           	DEC		A          	;  Now Black on White
700+  8D20 3D           	DEC		A 				;  Now White on White
701+  8D21              redCard
702+  8D21 3C           	INC		A    			;  Now Red on White or Black on White
703+  8D22              drawCardBackground
704+  8D22 11 18 00     	LD		DE,0x0018		; colour card background
705+  8D25 0E 0A        	LD		C,0x0A
706+  8D27              nxtAttrLine
707+  8D27 06 08        	LD		B,0x08
708+  8D29              nxtAttrCell
709+  8D29 77           	LD		(HL),A
710+  8D2A 23           	INC		HL
711+  8D2B 10 FC        	DJNZ	nxtAttrCell
712+  8D2D 19           	ADD		HL,DE
713+  8D2E 0D           	DEC		C
714+  8D2F 20 F6        	JR		NZ,nxtAttrLine
715+  8D31 2A 4A 8C     	LD		HL,(cardTLDFAddress)
716+  8D34 01 08 0A     	LD		BC,0x0A08
717+  8D37 11 00 3D     	LD		DE,0x3D00    	; space character data in ROM
718+  8D3A 3E 04        	LD		A,FLAG_CHAR_REPEAT
719+  8D3C DD 21 49 8C  	LD		IX,flags
720+  8D40 DD 77 00     	LD		(IX+0x00),A
721+  8D43 CD 8F 8C     	CALL	drawCharacters
722+  8D46 01 01 01     	LD		BC,0x0101
723+  8D49 CD 6E 8C     	CALL	offsetDFAddress
724+  8D4C D1           	POP		DE
725+  8D4D 1C           	INC		E
726+  8D4E 1D           	DEC		E
727+  8D4F 20 09        	JR		NZ,nonZeroSuit
728+  8D51 01 06 08     	LD		BC,0x0806	; fill in card back
729+  8D54 11 F0 8B     	LD		DE,cardBackData
730+  8D57 C3 8F 8C     	JP		drawCharacters
731+  8D5A              nonZeroSuit
732+  8D5A 7A           	LD		A,D
733+  8D5B A7           	AND		A
734+  8D5C 20 28        	JR		NZ,nonZeroValue
735+  8D5E 01 06 08     	LD		BC,0x0806
736+  8D61 11 00 89     	LD		DE,jokerCardData
737+  8D64 DD 77 00     	LD		(IX+0x00),A	; FLAG_DEFAULT
738+  8D67 CD 8F 8C     	CALL	drawCharacters
739+  8D6A 06 00        	LD		B,0x00
740+  8D6C 11 50 3E     	LD		DE,0x3E50		; "J"
741+  8D6F CD E7 8C     	CALL	drawCornerCharacters
742+  8D72 1E 78        	LD		E,0x78			; "O"
743+  8D74 CD E7 8C     	CALL	drawCornerCharacters
744+  8D77 1E 58        	LD		E,0x58			; "K"
745+  8D79 CD E7 8C     	CALL	drawCornerCharacters
746+  8D7C 1E 28        	LD		E,0x28			; "E"
747+  8D7E CD E7 8C     	CALL	drawCornerCharacters
748+  8D81 1E 90        	LD		E,0x90			; "R"
749+  8D83 C3 E7 8C     	JP		drawCornerCharacters
750+  8D86              nonZeroValue
751+  8D86 E5           	PUSH	HL
752+  8D87 D5           	PUSH	DE
753+  8D88 87           	ADD		A,A
754+  8D89 6F           	LD		L,A
755+  8D8A 26 00        	LD		H,0x00
756+  8D8C 11 F6 8B     	LD		DE,characterDataLookup - 2
757+  8D8F 19           	ADD		HL,DE
758+  8D90 5E           	LD		E,(HL)
759+  8D91 23           	INC		HL
760+  8D92 56           	LD		D,(HL)
761+  8D93 06 00        	LD		B,0x00
762+  8D95 CD E7 8C     	CALL	drawCornerCharacters
763+  8D98 D1           	POP		DE
764+  8D99 D5           	PUSH	DE
765+  8D9A 7B           	LD		A,E
766+  8D9B 87           	ADD		A,A
767+  8D9C 87           	ADD		A,A
768+  8D9D 87           	ADD		A,A
769+  8D9E C6 B8        	ADD		A,(low smallSuitCharData) - 8 ;0xB8
770+  8DA0 5F           	LD		E,A
771+  8DA1 16 8B        	LD		D,high smallSuitCharData
772+  8DA3 06 01        	LD		B,0x01
773+  8DA5 CD E7 8C     	CALL	drawCornerCharacters
774+  8DA8 21 04 01     	LD		HL,0x0104
775+  8DAB D1           	POP		DE
776+  8DAC A7           	AND		A
777+  8DAD ED 52        	SBC		HL,DE
778+  8DAF 20 35        	JR		NZ,notAceOfSpades
779+  8DB1 01 03 08     	LD		BC,0x0803
780+  8DB4 11 80 8A     	LD		DE,aceOfSpadesCardData
781+  8DB7 E1           	POP		HL
782+  8DB8 DD 36 00 00  	LD		(IX+0x00),FLAG_DEFAULT
783+  8DBC CD 8F 8C     	CALL	drawCharacters
784+  8DBF 01 06 01     	LD		BC,0x0106
785+  8DC2 CD 6E 8C     	CALL	offsetDFAddress
786+  8DC5 01 03 08     	LD		BC,0x0803
787+  8DC8 11 80 8A     	LD		DE,aceOfSpadesCardData
788+  8DCB DD 36 00 09  	LD		(IX+0x00), FLAG_MIRROR_BYTE | FLAG_REVERSE_DF_ADDR ;0x09
789+  8DCF CD 8F 8C     	CALL	drawCharacters
790+  8DD2 01 04 04     	LD		BC,0x0404
791+  8DD5 CD 6E 8C     	CALL	offsetDFAddress
792+  8DD8 01 01 01     	LD		BC,0x0101
793+  8DDB 11 E8 8B     	LD		DE,aceOfSpadesPatchData
794+  8DDE DD 36 00 00  	LD		(IX+0x00),FLAG_DEFAULT
795+  8DE2 CD 8F 8C     	CALL	drawCharacters
796+  8DE5 C9           	RET
797+  8DE6              notAceOfSpades
798+  8DE6 7A           	LD		A,D
799+  8DE7 FE 0B        	CP		0x0B
800+  8DE9 38 2E        	JR		C,notPictureCard		; branch if not a picture card
801+  8DEB 83           	ADD		A,E
802+  8DEC 83           	ADD		A,E
803+  8DED 83           	ADD		A,E
804+  8DEE 21 C0 00     	LD		HL,0x00C0		; 192 bytes per picture half (6 x 4 x 8)
805+  8DF1 54           	LD		D,H
806+  8DF2 5F           	LD		E,A
807+  8DF3 CD A9 30     	CALL	0x30A9		; HL = HL * DE
808+  8DF6 11 80 75     	LD		DE,pictureCardData - 0x0A80	; calculate picture card bitmap data address
809+  8DF9 19           	ADD		HL,DE
810+  8DFA EB           	EX		DE,HL
811+  8DFB 01 06 04     	LD		BC,0x0406
812+  8DFE E1           	POP		HL
813+  8DFF DD 36 00 00  	LD		(IX+0x00),FLAG_DEFAULT
814+  8E03 CD 8F 8C     	CALL	drawCharacters
815+  8E06 01 01 05     	LD		BC,0x0501
816+  8E09 D5           	PUSH	DE
817+  8E0A CD 6E 8C     	CALL	offsetDFAddress
818+  8E0D D1           	POP		DE
819+  8E0E 1B           	DEC		DE
820+  8E0F 01 06 04     	LD		BC,0x0406
821+  8E12 DD 36 00 03  	LD		(IX+0x00),FLAG_MIRROR_BYTE | FLAG_REVERSE_DATA ;0x03
822+  8E16 C3 8F 8C     	JP		drawCharacters
823+  8E19              notPictureCard
824+  8E19 E1           	POP		HL
825+  8E1A 7B           	LD		A,E
826+  8E1B 87           	ADD		A,A
827+  8E1C 87           	ADD		A,A
828+  8E1D 87           	ADD		A,A
829+  8E1E 87           	ADD		A,A
830+  8E1F 87           	ADD		A,A
831+  8E20 C6 20        	ADD		A,(largeSuitCharData & 0xff) - 0x20
832+  8E22 6F           	LD		L,A
833+  8E23 26 8B        	LD		H,high largeSuitCharData
834+  8E25 E5           	PUSH	HL							; address of large symbol bitmap data
835+  8E26 21 12 8C     	LD		HL,symbolLayoutTable		; address of symbol location data
836+  8E29 06 00        	LD		B,0x00
837+  8E2B 4A           	LD		C,D						; card number 1=ace,2=2,11=Jack, etc
838+  8E2C 18 01        	JR		calcLayoutAddr
839+  8E2E              nxtLayoutAddr
840+  8E2E 09           	ADD		HL,BC
841+  8E2F              calcLayoutAddr
842+  8E2F 0D           	DEC		C
843+  8E30 20 FC        	JR		NZ,nxtLayoutAddr
844+  8E32 1E 00        	LD		E,0x00						; HL = address of symbol position data to use
845+  8E34              drawNxtSymbol
846+  8E34 7E           	LD		A,(HL)
847+  8E35 FE 50        	CP		0x50						; is symbol mirrored
848+  8E37 38 0C        	JR		C,notMirrored
849+  8E39 1C           	INC		E
850+  8E3A 1D           	DEC		E
851+  8E3B 20 08        	JR		NZ,notMirrored					; is E=0 ?
852+  8E3D E3           	EX		(SP),HL					; yes
853+  8E3E 01 1F 00     	LD		BC,0x001F
854+  8E41 09           	ADD		HL,BC						; position symbol data at the end
855+  8E42 E3           	EX		(SP),HL
856+  8E43 1E 03        	LD		E,FLAG_MIRROR_BYTE | FLAG_REVERSE_DATA	; 0x03
857+  8E45              notMirrored
858+  8E45 1F           	RRA
859+  8E46 1F           	RRA
860+  8E47 1F           	RRA
861+  8E48 1F           	RRA
862+  8E49 E6 0F        	AND		0x0F		; X offset
863+  8E4B 47           	LD		B,A
864+  8E4C 7E           	LD		A,(HL)
865+  8E4D E6 0F        	AND		0x0F		; y offset
866+  8E4F 4F           	LD		C,A
867+  8E50 23           	INC		HL
868+  8E51 DD 73 00     	LD		(IX+0x00),E		; flags 0=normal, 3=mirrored
869+  8E54 E3           	EX		(SP),HL
870+  8E55 D5           	PUSH	DE
871+  8E56 E5           	PUSH	HL
872+  8E57 CD 6E 8C     	CALL	offsetDFAddress
873+  8E5A D1           	POP		DE
874+  8E5B D5           	PUSH	DE
875+  8E5C 01 02 02     	LD		BC,0x0202		; symbol is 2x2 chars
876+  8E5F CD 8F 8C     	CALL	drawCharacters
877+  8E62 C1           	POP		BC
878+  8E63 D1           	POP		DE
879+  8E64 E1           	POP		HL
880+  8E65 C5           	PUSH	BC
881+  8E66 15           	DEC		D
882+  8E67 20 CB        	JR		NZ,drawNxtSymbol
883+  8E69 E1           	POP		HL
884+  8E6A C9           	RET
885+  8E6B
# file closed: /Users/aidy/Documents/VS_Code_Projects/zxn-public/cards/lib/cards.asm
 14   8E6B
 15   8E6B              cardDemo
 16   8E6B AF           	XOR		A
 17   8E6C D3 FE        	OUT		(0xFE),A
 18   8E6E 11 01 40     	LD		DE,0x4001
 19   8E71 21 00 40     	LD		HL,0x4000
 20   8E74 01 FF 1A     	LD		BC,0x1AFF
 21   8E77 77           	LD		(HL),A
 22   8E78 ED B0        	LDIR
 23   8E7A CD 82 8E     	CALL	drawAllValueCards
 24   8E7D CD A5 8E     	CALL	drawBackAndJokers
 25   8E80 18 FE        	JR		$
 26   8E82
 27   8E82              drawAllValueCards
 28   8E82 0E 01        	LD		C,0x01
 29   8E84 1E 01        	LD		E,0x01
 30   8E86              nxtSuit
 31   8E86 06 00        	LD		B,0x00
 32   8E88 16 0D        	LD		D,0x0D
 33   8E8A              nxtCard
 34   8E8A D5           	PUSH	DE
 35   8E8B C5           	PUSH	BC
 36   8E8C 3E 0E        	LD		A,0x0E
 37   8E8E 92           	SUB		D
 38   8E8F 57           	LD		D,A
 39   8E90 CD 4C 8C     	CALL    drawCard
 40   8E93 C1           	POP		BC
 41   8E94 04          > INC 	B
 41   8E95 04          > INC 	B
 42   8E96 D1           	POP		DE
 43   8E97 15           	DEC		D
 44   8E98 20 F0        	JR		NZ, nxtCard
 45   8E9A 79           	LD		A,C
 46   8E9B C6 04        	ADD		A,0x04
 47   8E9D 4F           	LD		C,A
 48   8E9E 1C           	INC		E
 49   8E9F 7B           	LD		A,E
 50   8EA0 FE 05        	CP		0x05
 51   8EA2 38 E2        	JR		C,nxtSuit
 52   8EA4 C9           	RET
 53   8EA5
 54   8EA5              drawBackAndJokers
 55   8EA5 11 00 00     	LD	DE,0x0000
 56   8EA8 01 02 01     	LD	BC,0x0102
 57   8EAB              nxtSpCard
 58   8EAB C5           	PUSH	BC
 59   8EAC D5           	PUSH	DE
 60   8EAD CD 4C 8C     	CALL    drawCard
 61   8EB0 D1           	POP		DE
 62   8EB1 C1           	POP		BC
 63   8EB2 78           	LD		A,B
 64   8EB3 C6 05        	ADD		0x05
 65   8EB5 47           	LD		B,A
 66   8EB6 79           	LD		A,C
 67   8EB7 C6 03        	ADD		0x03
 68   8EB9 4F           	LD		C,A
 69   8EBA 1C           	INC		E
 70   8EBB 7B           	LD		A,E
 71   8EBC FE 03        	CP		0x03
 72   8EBE 20 EB        	JR		NZ,nxtSpCard
 73   8EC0 C9           	RET
 74   8EC1
 75   8EC1              	SAVENEX 	OPEN "../nex/carddemo.nex", cardDemo, 0xFFFF
 76   8EC1              	SAVENEX 	CORE 3, 0, 0
 77   8EC1              	SAVENEX 	AUTO
 78   8EC1              	SAVENEX 	CLOSE
 79   8EC1
# file closed: src/main.asm

Value    Label
------ - -----------------------------------------------------------
0x8EAB   nxtSpCard
0x8E8A   nxtCard
0x8E86   nxtSuit
0x8EA5   drawBackAndJokers
0x8E82   drawAllValueCards
0x8E6B X cardDemo
0x8E45   notMirrored
0x8E34   drawNxtSymbol
0x8E2E   nxtLayoutAddr
0x8E2F   calcLayoutAddr
0x8E19   notPictureCard
0x8DE6   notAceOfSpades
0x8D86   nonZeroValue
0x8D5A   nonZeroSuit
0x8D29   nxtAttrCell
0x8D27   nxtAttrLine
0x8D21   redCard
0x8D22   drawCardBackground
0x8CE7   drawCornerCharacters
0x8CD6   advanceCharacterLine
0x8CC6   advanceScreenAddress
0x8CBC   noCharacterRepeat
0x8CAE   advanceCharacterData
0x8CA0   nxtShift
0x8CA5   byteNotMirrored
0x8C96   nxtPixelLine
0x8C92   nxtCharacterCell
0x8C8F   drawCharacters
0x0010 X FLAG_CHAR_LINE_UP
0x0008   FLAG_REVERSE_DF_ADDR
0x0004   FLAG_CHAR_REPEAT
0x0002   FLAG_REVERSE_DATA
0x0001   FLAG_MIRROR_BYTE
0x0000   FLAG_DEFAULT
0x0004   CHAR_LINE_UP
0x0003   REVERSE_DF_ADDR
0x0002   CHAR_REPEAT
0x0001   REVERSE_DATA
0x0000   MIRROR_BYTE
0x8C7D   nxtCharLine
0x8C7E   startCalculating
0x8C77 X calculateScreenAddress
0x8C6E   offsetDFAddress
0x8D14   doDrawCard
0x8C4C   drawCard
0x8C4A   cardTLDFAddress
0x8C49   flags
0x8C12   symbolLayoutTable
0x8BF8   characterDataLookup
0x8BF0   cardBackData
0x8BE8   aceOfSpadesPatchData
0x8BE0   tenCharacterData
0x8BC0   smallSuitCharData
0x8B40   largeSuitCharData
0x8A80   aceOfSpadesCardData
0x8900   jokerCardData
0x8000   pictureCardData
